

Microchip MPLAB XC8 Assembler V2.32 build 20210201212658 
                                                                                               Sun Mar 27 18:24:10 2022

Microchip MPLAB XC8 C Compiler v2.32 (Free license) build 20210201212658 Og1 
     1                           	processor	18LF26K40
     2                           	fnconf	rparam,??,?,0
     3                           	pagewidth 120
     4                           	opt	flic
     5                           	psect	smallconst,global,reloc=2,class=SMALLCONST,delta=1,noexec
     6                           	psect	nvCOMRAM,global,class=COMRAM,space=1,delta=1,lowdata,noexec
     7                           	psect	cinit,global,reloc=2,class=CODE,delta=1
     8                           	psect	bssCOMRAM,global,class=COMRAM,space=1,delta=1,lowdata,noexec
     9                           	psect	cstackCOMRAM,global,class=COMRAM,space=1,delta=1,lowdata,noexec
    10                           	psect	text0,global,reloc=2,class=CODE,delta=1
    11                           	psect	text1,global,reloc=2,class=CODE,delta=1
    12                           	psect	text2,global,reloc=2,class=CODE,delta=1
    13                           	psect	text3,global,reloc=2,class=CODE,delta=1
    14                           	psect	text4,global,reloc=2,class=CODE,delta=1,group=1
    15                           	psect	text5,global,reloc=2,class=CODE,delta=1,group=1
    16                           	psect	text6,global,reloc=2,class=CODE,delta=1,group=1
    17                           	psect	text7,global,reloc=2,class=CODE,delta=1
    18                           	psect	text8,global,reloc=2,class=CODE,delta=1
    19                           	psect	text9,global,reloc=2,class=CODE,delta=1
    20                           	psect	text10,global,reloc=2,class=CODE,delta=1
    21                           	psect	text11,global,reloc=2,class=CODE,delta=1
    22                           	psect	text12,global,reloc=2,class=CODE,delta=1
    23                           	psect	text13,global,reloc=2,class=CODE,delta=1
    24                           	psect	text14,global,reloc=2,class=CODE,delta=1
    25                           	psect	text15,global,reloc=2,class=CODE,delta=1
    26                           	psect	text16,global,reloc=2,class=CODE,delta=1
    27                           	psect	text17,global,reloc=2,class=CODE,delta=1
    28                           	psect	intsave_regs,global,class=BIGRAM,space=1,delta=1,noexec
    29                           	psect	rparam,global,class=COMRAM,space=1,delta=1,noexec
    30                           	psect	idloc,global,abs,ovrld,class=IDLOC,space=5,delta=1,noexec
    31                           	psect	config,global,abs,ovrld,class=CONFIG,space=4,delta=1,noexec
    32  0000                     
    33                           ; Version 2.20
    34                           ; Generated 05/05/2020 GMT
    35                           ; 
    36                           ; Copyright © 2020, Microchip Technology Inc. and its subsidiaries ("Microchip")
    37                           ; All rights reserved.
    38                           ; 
    39                           ; This software is developed by Microchip Technology Inc. and its subsidiaries ("Microch
      +                          ip").
    40                           ; 
    41                           ; Redistribution and use in source and binary forms, with or without modification, are
    42                           ; permitted provided that the following conditions are met:
    43                           ; 
    44                           ;     1. Redistributions of source code must retain the above copyright notice, this lis
      +                          t of
    45                           ;        conditions and the following disclaimer.
    46                           ; 
    47                           ;     2. Redistributions in binary form must reproduce the above copyright notice, this 
      +                          list
    48                           ;        of conditions and the following disclaimer in the documentation and/or other
    49                           ;        materials provided with the distribution.
    50                           ; 
    51                           ;     3. Microchip's name may not be used to endorse or promote products derived from th
      +                          is
    52                           ;        software without specific prior written permission.
    53                           ; 
    54                           ; THIS SOFTWARE IS PROVIDED BY MICROCHIP "AS IS" AND ANY EXPRESS OR IMPLIED WARRANTIES,
    55                           ; INCLUDING, BUT NOT LIMITED TO, THE IMPLIED WARRANTIES OF MERCHANTABILITY AND FITNESS F
      +                          OR
    56                           ; PURPOSE ARE DISCLAIMED.  IN NO EVENT SHALL MICROCHIP BE LIABLE FOR ANY DIRECT, INDIREC
      +                          T,
    57                           ; INCIDENTAL, SPECIAL, EXEMPLARY, OR CONSEQUENTIAL DAMAGES (INCLUDING BUT NOT LIMITED TO
    58                           ; PROCUREMENT OF SUBSTITUTE GOODS OR SERVICES; LOSS OF USE, DATA OR PROFITS; OR BUSINESS
    59                           ; INTERRUPTION) HOWSOEVER CAUSED AND ON ANY THEORY OF LIABILITY, WHETHER IN CONTRACT, ST
      +                          RICT
    60                           ; LIABILITY, OR TORT (INCLUDING NEGLIGENCE OR OTHERWISE) ARISING IN ANY WAY OUT OF THE U
      +                          SE OF
    61                           ; THIS SOFTWARE, EVEN IF ADVISED OF THE POSSIBILITY OF SUCH DAMAGE.
    62                           ; 
    63                           ; 
    64                           ; Code-generator required, PIC18LF26K40 Definitions
    65                           ; 
    66                           ; SFR Addresses
    67  0000                     
    68 ;; Function _rd1RegCompleteHandler is unused but had its address taken
    69  0000                     
    70 ;; Function _rd2RegCompleteHandler is unused but had its address taken
    71  0000                     
    72 ;; Function _wr1RegCompleteHandler is unused but had its address taken
    73  0000                     
    74 ;; Function _wr2RegCompleteHandler is unused but had its address taken
    75  0000                     
    76 ;; Function _rdBlkRegCompleteHandler is unused but had its address taken
    77  0000                     
    78 ;; Function _I2C1_DO_IDLE is unused but had its address taken
    79  0000                     
    80 ;; Function _I2C1_DO_SEND_ADR_READ is unused but had its address taken
    81  0000                     
    82 ;; Function _I2C1_DO_SEND_ADR_WRITE is unused but had its address taken
    83  0000                     
    84 ;; Function _I2C1_DO_TX is unused but had its address taken
    85  0000                     
    86 ;; Function _I2C1_DO_RX is unused but had its address taken
    87  0000                     
    88 ;; Function _I2C1_DO_RCEN is unused but had its address taken
    89  0000                     
    90 ;; Function _I2C1_DO_TX_EMPTY is unused but had its address taken
    91  0000                     
    92 ;; Function _I2C1_DO_SEND_RESTART_READ is unused but had its address taken
    93  0000                     
    94 ;; Function _I2C1_DO_SEND_RESTART_WRITE is unused but had its address taken
    95  0000                     
    96 ;; Function _I2C1_DO_SEND_RESTART is unused but had its address taken
    97  0000                     
    98 ;; Function _I2C1_DO_SEND_STOP is unused but had its address taken
    99  0000                     
   100 ;; Function _I2C1_DO_RX_ACK is unused but had its address taken
   101  0000                     
   102 ;; Function _I2C1_DO_RX_NACK_STOP is unused but had its address taken
   103  0000                     
   104 ;; Function _I2C1_DO_RX_NACK_RESTART is unused but had its address taken
   105  0000                     
   106 ;; Function _I2C1_DO_RESET is unused but had its address taken
   107  0000                     
   108 ;; Function _I2C1_DO_ADDRESS_NACK is unused but had its address taken
   109  0000                     
   110 ;; Function _I2C1_CallbackReturnStop is unused but had its address taken
   111  0000                     
   112 ;; Function _I2C1_CallbackReturnReset is unused but had its address taken
   113  0000                     
   114 ;; Function _EUSART1_DefaultFramingErrorHandler is unused but had its address taken
   115  0000                     
   116 ;; Function _EUSART1_DefaultOverrunErrorHandler is unused but had its address taken
   117  0000                     
   118 ;; Function _EUSART1_DefaultErrorHandler is unused but had its address taken
   119  0000                     
   120                           	psect	smallconst
   121  000F00                     __psmallconst:
   122                           	callstack 0
   123  000F00  00                 	db	0
   124  000F01                     _i2c1_fsmStateTable:
   125                           	callstack 0
   126  000F01  00                 	db	0
   127  000F02  00                 	db	0
   128  000F03  00                 	db	0
   129  000F04  00                 	db	0
   130  000F05  00                 	db	0
   131  000F06  00                 	db	0
   132  000F07  00                 	db	0
   133  000F08  00                 	db	0
   134  000F09  00                 	db	0
   135  000F0A  00                 	db	0
   136  000F0B  00                 	db	0
   137  000F0C  00                 	db	0
   138  000F0D  00                 	db	0
   139  000F0E  00                 	db	0
   140  000F0F  00                 	db	0
   141  000F10  00                 	db	0
   142  000F11  00                 	db	0
   143  000F12  00                 	db	0
   144  000F13  00                 	db	0
   145  000F14  00                 	db	0
   146  000F15  00                 	db	0
   147  000F16  00                 	db	0
   148  000F17  00                 	db	0
   149  000F18  00                 	db	0
   150  000F19  00                 	db	0
   151  000F1A  00                 	db	0
   152  000F1B  00                 	db	0
   153  000F1C  00                 	db	0
   154  000F1D  00                 	db	0
   155  000F1E  00                 	db	0
   156  000F1F  00                 	db	0
   157  000F20  00                 	db	0
   158  000F21                     __end_of_i2c1_fsmStateTable:
   159                           	callstack 0
   160  000F21  00                 	db	0	; dummy byte at the end
   161  0000                     
   162                           	psect	nvCOMRAM
   163  00004F                     __pnvCOMRAM:
   164                           	callstack 0
   165  00004F                     _EUSART1_ErrorHandler:
   166                           	callstack 0
   167  00004F                     	ds	2
   168  000051                     _EUSART1_OverrunErrorHandler:
   169                           	callstack 0
   170  000051                     	ds	2
   171  000053                     _EUSART1_FramingErrorHandler:
   172                           	callstack 0
   173  000053                     	ds	2
   174  0000                     _PMD5	set	3814
   175  0000                     _PMD4	set	3813
   176  0000                     _PMD3	set	3812
   177  0000                     _PMD2	set	3811
   178  0000                     _PMD1	set	3810
   179  0000                     _PMD0	set	3809
   180  0000                     _OSCTUNE	set	3805
   181  0000                     _OSCFRQ	set	3806
   182  0000                     _OSCEN	set	3804
   183  0000                     _OSCCON3	set	3802
   184  0000                     _OSCCON1	set	3800
   185  0000                     _SSP1DATPPS	set	3768
   186  0000                     _RC6PPS	set	3837
   187  0000                     _RC2PPS	set	3833
   188  0000                     _RC3PPS	set	3834
   189  0000                     _RX1PPS	set	3765
   190  0000                     _SSP1CLKPPS	set	3767
   191  0000                     _PIE3bits	set	3781
   192  0000                     _PIR3bits	set	3789
   193  0000                     _INLVLE	set	3882
   194  0000                     _INLVLC	set	3869
   195  0000                     _INLVLB	set	3861
   196  0000                     _INLVLA	set	3853
   197  0000                     _SLRCONC	set	3870
   198  0000                     _SLRCONB	set	3862
   199  0000                     _SLRCONA	set	3854
   200  0000                     _ODCONC	set	3871
   201  0000                     _ODCONB	set	3863
   202  0000                     _ODCONA	set	3855
   203  0000                     _WPUC	set	3872
   204  0000                     _WPUA	set	3856
   205  0000                     _WPUB	set	3864
   206  0000                     _WPUE	set	3885
   207  0000                     _ANSELA	set	3857
   208  0000                     _ANSELB	set	3865
   209  0000                     _ANSELC	set	3873
   210  0000                     _ADCON1bits	set	3929
   211  0000                     _ADCON2bits	set	3930
   212  0000                     _ADCON3bits	set	3931
   213  0000                     _ADACQ	set	3932
   214  0000                     _ADCLK	set	3927
   215  0000                     _ADACT	set	3926
   216  0000                     _ADREF	set	3928
   217  0000                     _ADCON3	set	3931
   218  0000                     _ADCON2	set	3930
   219  0000                     _ADCON1	set	3929
   220  0000                     _ADPRE	set	3934
   221  0000                     _ADCAP	set	3933
   222  0000                     _ADPCH	set	3935
   223  0000                     _LATAbits	set	3971
   224  0000                     _LATBbits	set	3972
   225  0000                     _TX1REG	set	3994
   226  0000                     _RC1REG	set	3993
   227  0000                     _RC1STAbits	set	3997
   228  0000                     _TX1STAbits	set	3998
   229  0000                     _SP1BRGH	set	3996
   230  0000                     _SP1BRGL	set	3995
   231  0000                     _TX1STA	set	3998
   232  0000                     _RC1STA	set	3997
   233  0000                     _BAUD1CON	set	3999
   234  0000                     _TRISC	set	3978
   235  0000                     _TRISB	set	3977
   236  0000                     _TRISA	set	3976
   237  0000                     _LATC	set	3973
   238  0000                     _LATB	set	3972
   239  0000                     _LATA	set	3971
   240  0000                     _ADERRL	set	3950
   241  0000                     _ADERRH	set	3951
   242  0000                     _ADPREVL	set	3937
   243  0000                     _ADPREVH	set	3938
   244  0000                     _ADFLTRL	set	3954
   245  0000                     _ADFLTRH	set	3955
   246  0000                     _ADSTATbits	set	3941
   247  0000                     _ADACCL	set	3952
   248  0000                     _ADACCH	set	3953
   249  0000                     _ADCNT	set	3943
   250  0000                     _ADRESL	set	3939
   251  0000                     _ADRESH	set	3940
   252  0000                     _ADCON0bits	set	3936
   253  0000                     _ADCON0	set	3936
   254  0000                     _ADSTAT	set	3941
   255  0000                     _ADRPT	set	3942
   256  0000                     _ADSTPTH	set	3945
   257  0000                     _ADSTPTL	set	3944
   258  0000                     _ADUTHH	set	3949
   259  0000                     _ADUTHL	set	3948
   260  0000                     _ADLTHH	set	3947
   261  0000                     _ADLTHL	set	3946
   262  0000                     _SSP1STATbits	set	3989
   263  0000                     _SSP1CON2bits	set	3991
   264  0000                     _SSP1BUF	set	3986
   265  0000                     _SSP1CON1bits	set	3990
   266  0000                     _SSP1ADD	set	3987
   267  0000                     _SSP1CON2	set	3991
   268  0000                     _SSP1CON1	set	3990
   269  0000                     _SSP1STAT	set	3989
   270  0000                     _RA7	set	31855
   271                           
   272                           ; #config settings
   273                           
   274                           	psect	cinit
   275  001EA6                     __pcinit:
   276                           	callstack 0
   277  001EA6                     start_initialization:
   278                           	callstack 0
   279  001EA6                     __initialization:
   280                           	callstack 0
   281                           
   282                           ; Clear objects allocated to COMRAM (37 bytes)
   283  001EA6  EE00  F02A         	lfsr	0,__pbssCOMRAM
   284  001EAA  0E25               	movlw	37
   285  001EAC                     clear_0:
   286  001EAC  6AEE               	clrf	postinc0,c
   287  001EAE  06E8               	decf	wreg,f,c
   288  001EB0  E1FD               	bnz	clear_0
   289  001EB2                     end_of_initialization:
   290                           	callstack 0
   291  001EB2                     __end_of__initialization:
   292                           	callstack 0
   293  001EB2  0100               	movlb	0
   294  001EB4  EFFA  F00B         	goto	_main	;jump to C main() function
   295                           
   296                           	psect	bssCOMRAM
   297  00002A                     __pbssCOMRAM:
   298                           	callstack 0
   299  00002A                     _I2C1_Status:
   300                           	callstack 0
   301  00002A                     	ds	36
   302  00004E                     _eusart1RxLastError:
   303                           	callstack 0
   304  00004E                     	ds	1
   305                           
   306                           	psect	cstackCOMRAM
   307  000001                     __pcstackCOMRAM:
   308                           	callstack 0
   309  000001                     ?_ADCC_GetSingleConversion:
   310                           	callstack 0
   311  000001                     ?___flmul:
   312                           	callstack 0
   313  000001                     ?___xxtofl:
   314                           	callstack 0
   315  000001                     EUSART1_SetFramingErrorHandler@interruptHandler:
   316                           	callstack 0
   317  000001                     EUSART1_SetOverrunErrorHandler@interruptHandler:
   318                           	callstack 0
   319  000001                     EUSART1_SetErrorHandler@interruptHandler:
   320                           	callstack 0
   321  000001                     delay_ms@milliseconds:
   322                           	callstack 0
   323  000001                     ___flge@ff1:
   324                           	callstack 0
   325  000001                     ___flmul@b:
   326                           	callstack 0
   327  000001                     ___xxtofl@val:
   328                           	callstack 0
   329                           
   330                           ; 4 bytes @ 0x0
   331  000001                     	ds	2
   332  000003                     ??_ADCC_GetSingleConversion:
   333  000003                     ??_delay_ms:
   334                           
   335                           ; 1 bytes @ 0x2
   336  000003                     	ds	1
   337  000004                     motorCCW@delay:
   338                           	callstack 0
   339  000004                     motorCW@delay:
   340                           	callstack 0
   341                           
   342                           ; 2 bytes @ 0x3
   343  000004                     	ds	1
   344  000005                     ??___xxtofl:
   345  000005                     ADCC_GetSingleConversion@channel:
   346                           	callstack 0
   347  000005                     ___flge@ff2:
   348                           	callstack 0
   349  000005                     ___flmul@a:
   350                           	callstack 0
   351                           
   352                           ; 4 bytes @ 0x4
   353  000005                     	ds	1
   354  000006                     motorCCW@step:
   355                           	callstack 0
   356  000006                     motorCW@step:
   357                           	callstack 0
   358                           
   359                           ; 2 bytes @ 0x5
   360  000006                     	ds	2
   361  000008                     ??_motorCCW:
   362  000008                     ??_motorCW:
   363                           
   364                           ; 1 bytes @ 0x7
   365  000008                     	ds	1
   366  000009                     ??___flmul:
   367  000009                     ??___flge:
   368  000009                     ___xxtofl@sign:
   369                           	callstack 0
   370                           
   371                           ; 1 bytes @ 0x8
   372  000009                     	ds	1
   373  00000A                     ___xxtofl@exp:
   374                           	callstack 0
   375  00000A                     motorCCW@i:
   376                           	callstack 0
   377  00000A                     motorCW@i:
   378                           	callstack 0
   379                           
   380                           ; 2 bytes @ 0x9
   381  00000A                     	ds	1
   382  00000B                     ___xxtofl@arg:
   383                           	callstack 0
   384                           
   385                           ; 4 bytes @ 0xA
   386  00000B                     	ds	2
   387  00000D                     ___flmul@sign:
   388                           	callstack 0
   389                           
   390                           ; 1 bytes @ 0xC
   391  00000D                     	ds	1
   392  00000E                     ___flmul@grs:
   393                           	callstack 0
   394                           
   395                           ; 4 bytes @ 0xD
   396  00000E                     	ds	4
   397  000012                     ___flmul@aexp:
   398                           	callstack 0
   399                           
   400                           ; 1 bytes @ 0x11
   401  000012                     	ds	1
   402  000013                     ___flmul@bexp:
   403                           	callstack 0
   404                           
   405                           ; 1 bytes @ 0x12
   406  000013                     	ds	1
   407  000014                     ___flmul@prod:
   408                           	callstack 0
   409                           
   410                           ; 4 bytes @ 0x13
   411  000014                     	ds	4
   412  000018                     ___flmul@temp:
   413                           	callstack 0
   414                           
   415                           ; 2 bytes @ 0x17
   416  000018                     	ds	2
   417  00001A                     ??_main:
   418                           
   419                           ; 1 bytes @ 0x19
   420  00001A                     	ds	2
   421  00001C                     main@Voltage:
   422                           	callstack 0
   423                           
   424                           ; 4 bytes @ 0x1B
   425  00001C                     	ds	4
   426  000020                     main@VoltageActual:
   427                           	callstack 0
   428                           
   429                           ; 4 bytes @ 0x1F
   430  000020                     	ds	4
   431  000024                     main@Resolution:
   432                           	callstack 0
   433                           
   434                           ; 4 bytes @ 0x23
   435  000024                     	ds	4
   436  000028                     main@convertedValue:
   437                           	callstack 0
   438                           
   439                           ; 2 bytes @ 0x27
   440  000028                     	ds	2
   441                           
   442 ;;
   443 ;;Main: autosize = 0, tempsize = 2, incstack = 0, save=0
   444 ;;
   445 ;; *************** function _main *****************
   446 ;; Defined at:
   447 ;;		line 4 in file "main.c"
   448 ;; Parameters:    Size  Location     Type
   449 ;;		None
   450 ;; Auto vars:     Size  Location     Type
   451 ;;  convertedVal    2   39[COMRAM] unsigned short 
   452 ;;  Resolution      4   35[COMRAM] float 
   453 ;;  VoltageActua    4   31[COMRAM] float 
   454 ;;  Voltage         4   27[COMRAM] float 
   455 ;; Return value:  Size  Location     Type
   456 ;;                  1    wreg      void 
   457 ;; Registers used:
   458 ;;		wreg, status,2, status,0, prodl, prodh, cstack
   459 ;; Tracked objects:
   460 ;;		On entry : 0/0
   461 ;;		On exit  : 0/0
   462 ;;		Unchanged: 0/0
   463 ;; Data sizes:     COMRAM   BANK0   BANK1   BANK2   BANK3   BANK4   BANK5   BANK6   BANK7   BANK8   BANK9  BANK10  BANK1
      +1  BANK12  BANK13  BANK14
   464 ;;      Params:         0       0       0       0       0       0       0       0       0       0       0       0       
      +0       0       0       0
   465 ;;      Locals:        14       0       0       0       0       0       0       0       0       0       0       0       
      +0       0       0       0
   466 ;;      Temps:          2       0       0       0       0       0       0       0       0       0       0       0       
      +0       0       0       0
   467 ;;      Totals:        16       0       0       0       0       0       0       0       0       0       0       0       
      +0       0       0       0
   468 ;;Total ram usage:       16 bytes
   469 ;; Hardware stack levels required when called: 3
   470 ;; This function calls:
   471 ;;		_ADCC_GetSingleConversion
   472 ;;		_ADCC_Initialize
   473 ;;		_SYSTEM_Initialize
   474 ;;		___flge
   475 ;;		___flmul
   476 ;;		___xxtofl
   477 ;;		_motorCCW
   478 ;;		_motorCW
   479 ;; This function is called by:
   480 ;;		Startup code after reset
   481 ;; This function uses a non-reentrant model
   482 ;;
   483                           
   484                           	psect	text0
   485  0017F4                     __ptext0:
   486                           	callstack 0
   487  0017F4                     _main:
   488                           	callstack 28
   489  0017F4                     
   490                           ;main.c: 7:     SYSTEM_Initialize();
   491  0017F4  EC30  F00F         	call	_SYSTEM_Initialize	;wreg free
   492  0017F8  8283               	bsf	131,1,c	;volatile
   493  0017FA                     
   494                           ;main.c: 12:     _delay((unsigned long)((200)*(64000000/4000.0)));
   495  0017FA  0E11               	movlw	17
   496  0017FC  6E1B               	movwf	(??_main+1)^0,c
   497  0017FE  0E3C               	movlw	60
   498  001800  6E1A               	movwf	??_main^0,c
   499  001802  0ECB               	movlw	203
   500  001804                     u1247:
   501  001804  2EE8               	decfsz	wreg,f,c
   502  001806  D7FE               	bra	u1247
   503  001808  2E1A               	decfsz	??_main^0,f,c
   504  00180A  D7FC               	bra	u1247
   505  00180C  2E1B               	decfsz	(??_main+1)^0,f,c
   506  00180E  D7FA               	bra	u1247
   507  001810  F000               	nop	
   508  001812  8483               	bsf	131,2,c	;volatile
   509  001814                     
   510                           ;main.c: 15:     _delay((unsigned long)((200)*(64000000/4000.0)));
   511  001814  0E11               	movlw	17
   512  001816  6E1B               	movwf	(??_main+1)^0,c
   513  001818  0E3C               	movlw	60
   514  00181A  6E1A               	movwf	??_main^0,c
   515  00181C  0ECB               	movlw	203
   516  00181E                     u1257:
   517  00181E  2EE8               	decfsz	wreg,f,c
   518  001820  D7FE               	bra	u1257
   519  001822  2E1A               	decfsz	??_main^0,f,c
   520  001824  D7FC               	bra	u1257
   521  001826  2E1B               	decfsz	(??_main+1)^0,f,c
   522  001828  D7FA               	bra	u1257
   523  00182A  F000               	nop	
   524  00182C  8883               	bsf	131,4,c	;volatile
   525  00182E                     
   526                           ;main.c: 18:     _delay((unsigned long)((200)*(64000000/4000.0)));
   527  00182E  0E11               	movlw	17
   528  001830  6E1B               	movwf	(??_main+1)^0,c
   529  001832  0E3C               	movlw	60
   530  001834  6E1A               	movwf	??_main^0,c
   531  001836  0ECB               	movlw	203
   532  001838                     u1267:
   533  001838  2EE8               	decfsz	wreg,f,c
   534  00183A  D7FE               	bra	u1267
   535  00183C  2E1A               	decfsz	??_main^0,f,c
   536  00183E  D7FC               	bra	u1267
   537  001840  2E1B               	decfsz	(??_main+1)^0,f,c
   538  001842  D7FA               	bra	u1267
   539  001844  F000               	nop	
   540  001846  8A83               	bsf	131,5,c	;volatile
   541  001848                     
   542                           ;main.c: 21:     _delay((unsigned long)((200)*(64000000/4000.0)));
   543  001848  0E11               	movlw	17
   544  00184A  6E1B               	movwf	(??_main+1)^0,c
   545  00184C  0E3C               	movlw	60
   546  00184E  6E1A               	movwf	??_main^0,c
   547  001850  0ECB               	movlw	203
   548  001852                     u1277:
   549  001852  2EE8               	decfsz	wreg,f,c
   550  001854  D7FE               	bra	u1277
   551  001856  2E1A               	decfsz	??_main^0,f,c
   552  001858  D7FC               	bra	u1277
   553  00185A  2E1B               	decfsz	(??_main+1)^0,f,c
   554  00185C  D7FA               	bra	u1277
   555  00185E  F000               	nop	
   556  001860  9283               	bcf	131,1,c	;volatile
   557  001862                     
   558                           ;main.c: 26:     _delay((unsigned long)((200)*(64000000/4000.0)));
   559  001862  0E11               	movlw	17
   560  001864  6E1B               	movwf	(??_main+1)^0,c
   561  001866  0E3C               	movlw	60
   562  001868  6E1A               	movwf	??_main^0,c
   563  00186A  0ECB               	movlw	203
   564  00186C                     u1287:
   565  00186C  2EE8               	decfsz	wreg,f,c
   566  00186E  D7FE               	bra	u1287
   567  001870  2E1A               	decfsz	??_main^0,f,c
   568  001872  D7FC               	bra	u1287
   569  001874  2E1B               	decfsz	(??_main+1)^0,f,c
   570  001876  D7FA               	bra	u1287
   571  001878  F000               	nop	
   572  00187A  9483               	bcf	131,2,c	;volatile
   573  00187C                     
   574                           ;main.c: 29:     _delay((unsigned long)((200)*(64000000/4000.0)));
   575  00187C  0E11               	movlw	17
   576  00187E  6E1B               	movwf	(??_main+1)^0,c
   577  001880  0E3C               	movlw	60
   578  001882  6E1A               	movwf	??_main^0,c
   579  001884  0ECB               	movlw	203
   580  001886                     u1297:
   581  001886  2EE8               	decfsz	wreg,f,c
   582  001888  D7FE               	bra	u1297
   583  00188A  2E1A               	decfsz	??_main^0,f,c
   584  00188C  D7FC               	bra	u1297
   585  00188E  2E1B               	decfsz	(??_main+1)^0,f,c
   586  001890  D7FA               	bra	u1297
   587  001892  F000               	nop	
   588  001894  9883               	bcf	131,4,c	;volatile
   589  001896                     
   590                           ;main.c: 32:     _delay((unsigned long)((200)*(64000000/4000.0)));
   591  001896  0E11               	movlw	17
   592  001898  6E1B               	movwf	(??_main+1)^0,c
   593  00189A  0E3C               	movlw	60
   594  00189C  6E1A               	movwf	??_main^0,c
   595  00189E  0ECB               	movlw	203
   596  0018A0                     u1307:
   597  0018A0  2EE8               	decfsz	wreg,f,c
   598  0018A2  D7FE               	bra	u1307
   599  0018A4  2E1A               	decfsz	??_main^0,f,c
   600  0018A6  D7FC               	bra	u1307
   601  0018A8  2E1B               	decfsz	(??_main+1)^0,f,c
   602  0018AA  D7FA               	bra	u1307
   603  0018AC  F000               	nop	
   604  0018AE  9A83               	bcf	131,5,c	;volatile
   605  0018B0                     
   606                           ;main.c: 35:     _delay((unsigned long)((200)*(64000000/4000.0)));
   607  0018B0  0E11               	movlw	17
   608  0018B2  6E1B               	movwf	(??_main+1)^0,c
   609  0018B4  0E3C               	movlw	60
   610  0018B6  6E1A               	movwf	??_main^0,c
   611  0018B8  0ECB               	movlw	203
   612  0018BA                     u1317:
   613  0018BA  2EE8               	decfsz	wreg,f,c
   614  0018BC  D7FE               	bra	u1317
   615  0018BE  2E1A               	decfsz	??_main^0,f,c
   616  0018C0  D7FC               	bra	u1317
   617  0018C2  2E1B               	decfsz	(??_main+1)^0,f,c
   618  0018C4  D7FA               	bra	u1317
   619  0018C6  F000               	nop	
   620  0018C8                     
   621                           ;main.c: 38:     float Voltage;;main.c: 39:     float VoltageActual;;main.c: 40:     flo
      +                          at Resolution = 0.34;
   622  0018C8  0E7B               	movlw	123
   623  0018CA  6E24               	movwf	main@Resolution^0,c
   624  0018CC  0E14               	movlw	20
   625  0018CE  6E25               	movwf	(main@Resolution+1)^0,c
   626  0018D0  0EAE               	movlw	174
   627  0018D2  6E26               	movwf	(main@Resolution+2)^0,c
   628  0018D4  0E3E               	movlw	62
   629  0018D6  6E27               	movwf	(main@Resolution+3)^0,c
   630  0018D8                     
   631                           ;main.c: 43:     ADCC_Initialize();
   632  0018D8  ECA9  F00E         	call	_ADCC_Initialize	;wreg free
   633  0018DC                     l3404:
   634                           
   635                           ;main.c: 48:     {;main.c: 51:         if(RA7 == 0)
   636  0018DC  BE8D               	btfsc	3981,7,c	;volatile
   637  0018DE  EF73  F00C         	goto	u1211
   638  0018E2  EF75  F00C         	goto	u1210
   639  0018E6                     u1211:
   640  0018E6  EFA5  F00C         	goto	l3414
   641  0018EA                     u1210:
   642  0018EA  8883               	bsf	131,4,c	;volatile
   643  0018EC                     
   644                           ;main.c: 54:             _delay((unsigned long)((200)*(64000000/4000.0)));
   645  0018EC  0E11               	movlw	17
   646  0018EE  6E1B               	movwf	(??_main+1)^0,c
   647  0018F0  0E3C               	movlw	60
   648  0018F2  6E1A               	movwf	??_main^0,c
   649  0018F4  0ECB               	movlw	203
   650  0018F6                     u1327:
   651  0018F6  2EE8               	decfsz	wreg,f,c
   652  0018F8  D7FE               	bra	u1327
   653  0018FA  2E1A               	decfsz	??_main^0,f,c
   654  0018FC  D7FC               	bra	u1327
   655  0018FE  2E1B               	decfsz	(??_main+1)^0,f,c
   656  001900  D7FA               	bra	u1327
   657  001902  F000               	nop	
   658  001904                     
   659                           ;main.c: 56:             motorCW(100,5);
   660  001904  0E00               	movlw	0
   661  001906  6E05               	movwf	(motorCW@delay+1)^0,c
   662  001908  0E64               	movlw	100
   663  00190A  6E04               	movwf	motorCW@delay^0,c
   664  00190C  0E00               	movlw	0
   665  00190E  6E07               	movwf	(motorCW@step+1)^0,c
   666  001910  0E05               	movlw	5
   667  001912  6E06               	movwf	motorCW@step^0,c
   668  001914  ECA6  F009         	call	_motorCW	;wreg free
   669  001918                     
   670                           ;main.c: 57:             motorCCW(100,5);
   671  001918  0E00               	movlw	0
   672  00191A  6E05               	movwf	(motorCCW@delay+1)^0,c
   673  00191C  0E64               	movlw	100
   674  00191E  6E04               	movwf	motorCCW@delay^0,c
   675  001920  0E00               	movlw	0
   676  001922  6E07               	movwf	(motorCCW@step+1)^0,c
   677  001924  0E05               	movlw	5
   678  001926  6E06               	movwf	motorCCW@step^0,c
   679  001928  ECD0  F00A         	call	_motorCCW	;wreg free
   680  00192C  9883               	bcf	131,4,c	;volatile
   681  00192E                     
   682                           ;main.c: 60:             _delay((unsigned long)((200)*(64000000/4000.0)));
   683  00192E  0E11               	movlw	17
   684  001930  6E1B               	movwf	(??_main+1)^0,c
   685  001932  0E3C               	movlw	60
   686  001934  6E1A               	movwf	??_main^0,c
   687  001936  0ECB               	movlw	203
   688  001938                     u1337:
   689  001938  2EE8               	decfsz	wreg,f,c
   690  00193A  D7FE               	bra	u1337
   691  00193C  2E1A               	decfsz	??_main^0,f,c
   692  00193E  D7FC               	bra	u1337
   693  001940  2E1B               	decfsz	(??_main+1)^0,f,c
   694  001942  D7FA               	bra	u1337
   695  001944  F000               	nop	
   696                           
   697                           ;main.c: 61:         }
   698  001946  EF6E  F00C         	goto	l3404
   699  00194A                     l3414:
   700  00194A  BA83               	btfsc	131,5,c	;volatile
   701  00194C  EFAA  F00C         	goto	u1221
   702  001950  EFAD  F00C         	goto	u1220
   703  001954                     u1221:
   704  001954  0E01               	movlw	1
   705  001956  EFAE  F00C         	goto	u1226
   706  00195A                     u1220:
   707  00195A  0E00               	movlw	0
   708  00195C                     u1226:
   709  00195C  0AFF               	xorlw	255
   710  00195E  6E1A               	movwf	??_main^0,c
   711  001960  3A1A               	swapf	??_main^0,f,c
   712  001962  461A               	rlncf	??_main^0,f,c
   713  001964  5083               	movf	131,w,c	;volatile
   714  001966  181A               	xorwf	??_main^0,w,c
   715  001968  0BDF               	andlw	-33
   716  00196A  181A               	xorwf	??_main^0,w,c
   717  00196C  6E83               	movwf	131,c	;volatile
   718  00196E                     
   719                           ;main.c: 65:             _delay((unsigned long)((200)*(64000000/4000.0)));
   720  00196E  0E11               	movlw	17
   721  001970  6E1B               	movwf	(??_main+1)^0,c
   722  001972  0E3C               	movlw	60
   723  001974  6E1A               	movwf	??_main^0,c
   724  001976  0ECB               	movlw	203
   725  001978                     u1347:
   726  001978  2EE8               	decfsz	wreg,f,c
   727  00197A  D7FE               	bra	u1347
   728  00197C  2E1A               	decfsz	??_main^0,f,c
   729  00197E  D7FC               	bra	u1347
   730  001980  2E1B               	decfsz	(??_main+1)^0,f,c
   731  001982  D7FA               	bra	u1347
   732  001984  F000               	nop	
   733  001986                     
   734                           ;main.c: 67:             adc_result_t convertedValue;;main.c: 69:             convertedV
      +                          alue = ADCC_GetSingleConversion(ANA);
   735  001986  0E00               	movlw	0
   736  001988  EC0B  F00F         	call	_ADCC_GetSingleConversion
   737  00198C  C001  F028         	movff	?_ADCC_GetSingleConversion,main@convertedValue
   738  001990  C002  F029         	movff	?_ADCC_GetSingleConversion+1,main@convertedValue+1
   739  001994                     
   740                           ;main.c: 70:             Voltage = (float) convertedValue;
   741  001994  C028  F001         	movff	main@convertedValue,___xxtofl@val
   742  001998  C029  F002         	movff	main@convertedValue+1,___xxtofl@val+1
   743  00199C  6A03               	clrf	(___xxtofl@val+2)^0,c
   744  00199E  6A04               	clrf	(___xxtofl@val+3)^0,c
   745  0019A0  0E00               	movlw	0
   746  0019A2  EC16  F00D         	call	___xxtofl
   747  0019A6  C001  F01C         	movff	?___xxtofl,main@Voltage
   748  0019AA  C002  F01D         	movff	?___xxtofl+1,main@Voltage+1
   749  0019AE  C003  F01E         	movff	?___xxtofl+2,main@Voltage+2
   750  0019B2  C004  F01F         	movff	?___xxtofl+3,main@Voltage+3
   751  0019B6                     
   752                           ;main.c: 72:             VoltageActual = (Resolution * Voltage);
   753  0019B6  C024  F001         	movff	main@Resolution,___flmul@b
   754  0019BA  C025  F002         	movff	main@Resolution+1,___flmul@b+1
   755  0019BE  C026  F003         	movff	main@Resolution+2,___flmul@b+2
   756  0019C2  C027  F004         	movff	main@Resolution+3,___flmul@b+3
   757  0019C6  C01C  F005         	movff	main@Voltage,___flmul@a
   758  0019CA  C01D  F006         	movff	main@Voltage+1,___flmul@a+1
   759  0019CE  C01E  F007         	movff	main@Voltage+2,___flmul@a+2
   760  0019D2  C01F  F008         	movff	main@Voltage+3,___flmul@a+3
   761  0019D6  EC91  F007         	call	___flmul	;wreg free
   762  0019DA  C001  F020         	movff	?___flmul,main@VoltageActual
   763  0019DE  C002  F021         	movff	?___flmul+1,main@VoltageActual+1
   764  0019E2  C003  F022         	movff	?___flmul+2,main@VoltageActual+2
   765  0019E6  C004  F023         	movff	?___flmul+3,main@VoltageActual+3
   766  0019EA                     
   767                           ;main.c: 74:             if (VoltageActual > 100)
   768  0019EA  0E00               	movlw	0
   769  0019EC  6E01               	movwf	___flge@ff1^0,c
   770  0019EE  0E00               	movlw	0
   771  0019F0  6E02               	movwf	(___flge@ff1+1)^0,c
   772  0019F2  0EC8               	movlw	200
   773  0019F4  6E03               	movwf	(___flge@ff1+2)^0,c
   774  0019F6  0E42               	movlw	66
   775  0019F8  6E04               	movwf	(___flge@ff1+3)^0,c
   776  0019FA  C020  F005         	movff	main@VoltageActual,___flge@ff2
   777  0019FE  C021  F006         	movff	main@VoltageActual+1,___flge@ff2+1
   778  001A02  C022  F007         	movff	main@VoltageActual+2,___flge@ff2+2
   779  001A06  C023  F008         	movff	main@VoltageActual+3,___flge@ff2+3
   780  001A0A  ECF0  F00D         	call	___flge	;wreg free
   781  001A0E  B0D8               	btfsc	status,0,c
   782  001A10  EF0C  F00D         	goto	u1231
   783  001A14  EF0E  F00D         	goto	u1230
   784  001A18                     u1231:
   785  001A18  EF11  F00D         	goto	l1020
   786  001A1C                     u1230:
   787  001A1C  8283               	bsf	131,1,c	;volatile
   788  001A1E  EF6E  F00C         	goto	l3404
   789  001A22                     l1020:
   790  001A22  9283               	bcf	131,1,c	;volatile
   791  001A24  EF6E  F00C         	goto	l3404
   792  001A28  EF00  F000         	goto	start
   793  001A2C                     __end_of_main:
   794                           	callstack 0
   795                           
   796 ;; *************** function _motorCW *****************
   797 ;; Defined at:
   798 ;;		line 150 in file "./stepper.h"
   799 ;; Parameters:    Size  Location     Type
   800 ;;  delay           2    3[COMRAM] int 
   801 ;;  step            2    5[COMRAM] int 
   802 ;; Auto vars:     Size  Location     Type
   803 ;;  i               2    9[COMRAM] int 
   804 ;; Return value:  Size  Location     Type
   805 ;;                  1    wreg      void 
   806 ;; Registers used:
   807 ;;		wreg, status,2, status,0, cstack
   808 ;; Tracked objects:
   809 ;;		On entry : 0/0
   810 ;;		On exit  : 0/0
   811 ;;		Unchanged: 0/0
   812 ;; Data sizes:     COMRAM   BANK0   BANK1   BANK2   BANK3   BANK4   BANK5   BANK6   BANK7   BANK8   BANK9  BANK10  BANK1
      +1  BANK12  BANK13  BANK14
   813 ;;      Params:         4       0       0       0       0       0       0       0       0       0       0       0       
      +0       0       0       0
   814 ;;      Locals:         2       0       0       0       0       0       0       0       0       0       0       0       
      +0       0       0       0
   815 ;;      Temps:          2       0       0       0       0       0       0       0       0       0       0       0       
      +0       0       0       0
   816 ;;      Totals:         8       0       0       0       0       0       0       0       0       0       0       0       
      +0       0       0       0
   817 ;;Total ram usage:        8 bytes
   818 ;; Hardware stack levels used: 1
   819 ;; Hardware stack levels required when called: 1
   820 ;; This function calls:
   821 ;;		_delay_ms
   822 ;; This function is called by:
   823 ;;		_main
   824 ;; This function uses a non-reentrant model
   825 ;;
   826                           
   827                           	psect	text1
   828  00134C                     __ptext1:
   829                           	callstack 0
   830  00134C                     _motorCW:
   831                           	callstack 29
   832  00134C  9884               	bcf	132,4,c	;volatile
   833  00134E  9284               	bcf	132,1,c	;volatile
   834  001350                     
   835                           ;./stepper.h: 161:     _delay((unsigned long)((30)*(64000000/4000.0)));
   836  001350  0E03               	movlw	3
   837  001352  6E09               	movwf	(??_motorCW+1)^0,c
   838  001354  0E70               	movlw	112
   839  001356  6E08               	movwf	??_motorCW^0,c
   840  001358  0E5C               	movlw	92
   841  00135A                     u1357:
   842  00135A  2EE8               	decfsz	wreg,f,c
   843  00135C  D7FE               	bra	u1357
   844  00135E  2E08               	decfsz	??_motorCW^0,f,c
   845  001360  D7FC               	bra	u1357
   846  001362  2E09               	decfsz	(??_motorCW+1)^0,f,c
   847  001364  D7FA               	bra	u1357
   848  001366  D000               	nop2	
   849  001368                     
   850                           ;./stepper.h: 164:     for( int i = 0; i < step; i++)
   851  001368  0E00               	movlw	0
   852  00136A  6E0B               	movwf	(motorCW@i+1)^0,c
   853  00136C  0E00               	movlw	0
   854  00136E  6E0A               	movwf	motorCW@i^0,c
   855  001370  EFB2  F00A         	goto	l3164
   856  001374                     l905:
   857  001374  8084               	bsf	132,0,c	;volatile
   858  001376  9484               	bcf	132,2,c	;volatile
   859  001378                     
   860                           ;./stepper.h: 172:     _delay((unsigned long)((10)*(64000000/4000.0)));
   861  001378  0ED0               	movlw	208
   862  00137A  6E08               	movwf	??_motorCW^0,c
   863  00137C  0ECA               	movlw	202
   864  00137E                     u1367:
   865  00137E  2EE8               	decfsz	wreg,f,c
   866  001380  D7FE               	bra	u1367
   867  001382  2E08               	decfsz	??_motorCW^0,f,c
   868  001384  D7FC               	bra	u1367
   869  001386  8684               	bsf	132,3,c	;volatile
   870  001388  9A84               	bcf	132,5,c	;volatile
   871  00138A                     
   872                           ;./stepper.h: 176:     _delay((unsigned long)((10)*(64000000/4000.0)));
   873  00138A  0ED0               	movlw	208
   874  00138C  6E08               	movwf	??_motorCW^0,c
   875  00138E  0ECA               	movlw	202
   876  001390                     u1377:
   877  001390  2EE8               	decfsz	wreg,f,c
   878  001392  D7FE               	bra	u1377
   879  001394  2E08               	decfsz	??_motorCW^0,f,c
   880  001396  D7FC               	bra	u1377
   881  001398  8884               	bsf	132,4,c	;volatile
   882  00139A  8284               	bsf	132,1,c	;volatile
   883  00139C                     
   884                           ;./stepper.h: 180:     _delay((unsigned long)((30)*(64000000/4000.0)));
   885  00139C  0E03               	movlw	3
   886  00139E  6E09               	movwf	(??_motorCW+1)^0,c
   887  0013A0  0E70               	movlw	112
   888  0013A2  6E08               	movwf	??_motorCW^0,c
   889  0013A4  0E5C               	movlw	92
   890  0013A6                     u1387:
   891  0013A6  2EE8               	decfsz	wreg,f,c
   892  0013A8  D7FE               	bra	u1387
   893  0013AA  2E08               	decfsz	??_motorCW^0,f,c
   894  0013AC  D7FC               	bra	u1387
   895  0013AE  2E09               	decfsz	(??_motorCW+1)^0,f,c
   896  0013B0  D7FA               	bra	u1387
   897  0013B2  D000               	nop2	
   898  0013B4                     
   899                           ;./stepper.h: 181:     delay_ms(delay);
   900  0013B4  C004  F001         	movff	motorCW@delay,delay_ms@milliseconds
   901  0013B8  C005  F002         	movff	motorCW@delay+1,delay_ms@milliseconds+1
   902  0013BC  ECF0  F00E         	call	_delay_ms	;wreg free
   903  0013C0  9884               	bcf	132,4,c	;volatile
   904  0013C2  9284               	bcf	132,1,c	;volatile
   905  0013C4                     
   906                           ;./stepper.h: 186:     _delay((unsigned long)((30)*(64000000/4000.0)));
   907  0013C4  0E03               	movlw	3
   908  0013C6  6E09               	movwf	(??_motorCW+1)^0,c
   909  0013C8  0E70               	movlw	112
   910  0013CA  6E08               	movwf	??_motorCW^0,c
   911  0013CC  0E5C               	movlw	92
   912  0013CE                     u1397:
   913  0013CE  2EE8               	decfsz	wreg,f,c
   914  0013D0  D7FE               	bra	u1397
   915  0013D2  2E08               	decfsz	??_motorCW^0,f,c
   916  0013D4  D7FC               	bra	u1397
   917  0013D6  2E09               	decfsz	(??_motorCW+1)^0,f,c
   918  0013D8  D7FA               	bra	u1397
   919  0013DA  D000               	nop2	
   920  0013DC  8084               	bsf	132,0,c	;volatile
   921  0013DE  9484               	bcf	132,2,c	;volatile
   922  0013E0                     
   923                           ;./stepper.h: 193:     _delay((unsigned long)((10)*(64000000/4000.0)));
   924  0013E0  0ED0               	movlw	208
   925  0013E2  6E08               	movwf	??_motorCW^0,c
   926  0013E4  0ECA               	movlw	202
   927  0013E6                     u1407:
   928  0013E6  2EE8               	decfsz	wreg,f,c
   929  0013E8  D7FE               	bra	u1407
   930  0013EA  2E08               	decfsz	??_motorCW^0,f,c
   931  0013EC  D7FC               	bra	u1407
   932  0013EE  9684               	bcf	132,3,c	;volatile
   933  0013F0  8A84               	bsf	132,5,c	;volatile
   934  0013F2                     
   935                           ;./stepper.h: 197:     _delay((unsigned long)((10)*(64000000/4000.0)));
   936  0013F2  0ED0               	movlw	208
   937  0013F4  6E08               	movwf	??_motorCW^0,c
   938  0013F6  0ECA               	movlw	202
   939  0013F8                     u1417:
   940  0013F8  2EE8               	decfsz	wreg,f,c
   941  0013FA  D7FE               	bra	u1417
   942  0013FC  2E08               	decfsz	??_motorCW^0,f,c
   943  0013FE  D7FC               	bra	u1417
   944  001400  8884               	bsf	132,4,c	;volatile
   945  001402  8284               	bsf	132,1,c	;volatile
   946  001404                     
   947                           ;./stepper.h: 202:     _delay((unsigned long)((30)*(64000000/4000.0)));
   948  001404  0E03               	movlw	3
   949  001406  6E09               	movwf	(??_motorCW+1)^0,c
   950  001408  0E70               	movlw	112
   951  00140A  6E08               	movwf	??_motorCW^0,c
   952  00140C  0E5C               	movlw	92
   953  00140E                     u1427:
   954  00140E  2EE8               	decfsz	wreg,f,c
   955  001410  D7FE               	bra	u1427
   956  001412  2E08               	decfsz	??_motorCW^0,f,c
   957  001414  D7FC               	bra	u1427
   958  001416  2E09               	decfsz	(??_motorCW+1)^0,f,c
   959  001418  D7FA               	bra	u1427
   960  00141A  D000               	nop2	
   961  00141C                     
   962                           ;./stepper.h: 203:     delay_ms(delay);
   963  00141C  C004  F001         	movff	motorCW@delay,delay_ms@milliseconds
   964  001420  C005  F002         	movff	motorCW@delay+1,delay_ms@milliseconds+1
   965  001424  ECF0  F00E         	call	_delay_ms	;wreg free
   966  001428  9884               	bcf	132,4,c	;volatile
   967  00142A  9284               	bcf	132,1,c	;volatile
   968  00142C                     
   969                           ;./stepper.h: 208:     _delay((unsigned long)((30)*(64000000/4000.0)));
   970  00142C  0E03               	movlw	3
   971  00142E  6E09               	movwf	(??_motorCW+1)^0,c
   972  001430  0E70               	movlw	112
   973  001432  6E08               	movwf	??_motorCW^0,c
   974  001434  0E5C               	movlw	92
   975  001436                     u1437:
   976  001436  2EE8               	decfsz	wreg,f,c
   977  001438  D7FE               	bra	u1437
   978  00143A  2E08               	decfsz	??_motorCW^0,f,c
   979  00143C  D7FC               	bra	u1437
   980  00143E  2E09               	decfsz	(??_motorCW+1)^0,f,c
   981  001440  D7FA               	bra	u1437
   982  001442  D000               	nop2	
   983  001444  9084               	bcf	132,0,c	;volatile
   984  001446  8484               	bsf	132,2,c	;volatile
   985  001448                     
   986                           ;./stepper.h: 215:     _delay((unsigned long)((10)*(64000000/4000.0)));
   987  001448  0ED0               	movlw	208
   988  00144A  6E08               	movwf	??_motorCW^0,c
   989  00144C  0ECA               	movlw	202
   990  00144E                     u1447:
   991  00144E  2EE8               	decfsz	wreg,f,c
   992  001450  D7FE               	bra	u1447
   993  001452  2E08               	decfsz	??_motorCW^0,f,c
   994  001454  D7FC               	bra	u1447
   995  001456  9684               	bcf	132,3,c	;volatile
   996  001458  8A84               	bsf	132,5,c	;volatile
   997  00145A                     
   998                           ;./stepper.h: 219:     _delay((unsigned long)((10)*(64000000/4000.0)));
   999  00145A  0ED0               	movlw	208
  1000  00145C  6E08               	movwf	??_motorCW^0,c
  1001  00145E  0ECA               	movlw	202
  1002  001460                     u1457:
  1003  001460  2EE8               	decfsz	wreg,f,c
  1004  001462  D7FE               	bra	u1457
  1005  001464  2E08               	decfsz	??_motorCW^0,f,c
  1006  001466  D7FC               	bra	u1457
  1007  001468  8884               	bsf	132,4,c	;volatile
  1008  00146A  8284               	bsf	132,1,c	;volatile
  1009  00146C                     
  1010                           ;./stepper.h: 224:     _delay((unsigned long)((30)*(64000000/4000.0)));
  1011  00146C  0E03               	movlw	3
  1012  00146E  6E09               	movwf	(??_motorCW+1)^0,c
  1013  001470  0E70               	movlw	112
  1014  001472  6E08               	movwf	??_motorCW^0,c
  1015  001474  0E5C               	movlw	92
  1016  001476                     u1467:
  1017  001476  2EE8               	decfsz	wreg,f,c
  1018  001478  D7FE               	bra	u1467
  1019  00147A  2E08               	decfsz	??_motorCW^0,f,c
  1020  00147C  D7FC               	bra	u1467
  1021  00147E  2E09               	decfsz	(??_motorCW+1)^0,f,c
  1022  001480  D7FA               	bra	u1467
  1023  001482  D000               	nop2	
  1024  001484                     
  1025                           ;./stepper.h: 225:     delay_ms(delay);
  1026  001484  C004  F001         	movff	motorCW@delay,delay_ms@milliseconds
  1027  001488  C005  F002         	movff	motorCW@delay+1,delay_ms@milliseconds+1
  1028  00148C  ECF0  F00E         	call	_delay_ms	;wreg free
  1029  001490  9884               	bcf	132,4,c	;volatile
  1030  001492  9284               	bcf	132,1,c	;volatile
  1031  001494                     
  1032                           ;./stepper.h: 230:     _delay((unsigned long)((30)*(64000000/4000.0)));
  1033  001494  0E03               	movlw	3
  1034  001496  6E09               	movwf	(??_motorCW+1)^0,c
  1035  001498  0E70               	movlw	112
  1036  00149A  6E08               	movwf	??_motorCW^0,c
  1037  00149C  0E5C               	movlw	92
  1038  00149E                     u1477:
  1039  00149E  2EE8               	decfsz	wreg,f,c
  1040  0014A0  D7FE               	bra	u1477
  1041  0014A2  2E08               	decfsz	??_motorCW^0,f,c
  1042  0014A4  D7FC               	bra	u1477
  1043  0014A6  2E09               	decfsz	(??_motorCW+1)^0,f,c
  1044  0014A8  D7FA               	bra	u1477
  1045  0014AA  D000               	nop2	
  1046  0014AC  9084               	bcf	132,0,c	;volatile
  1047  0014AE  8484               	bsf	132,2,c	;volatile
  1048  0014B0                     
  1049                           ;./stepper.h: 237:     _delay((unsigned long)((10)*(64000000/4000.0)));
  1050  0014B0  0ED0               	movlw	208
  1051  0014B2  6E08               	movwf	??_motorCW^0,c
  1052  0014B4  0ECA               	movlw	202
  1053  0014B6                     u1487:
  1054  0014B6  2EE8               	decfsz	wreg,f,c
  1055  0014B8  D7FE               	bra	u1487
  1056  0014BA  2E08               	decfsz	??_motorCW^0,f,c
  1057  0014BC  D7FC               	bra	u1487
  1058  0014BE  8684               	bsf	132,3,c	;volatile
  1059  0014C0  9A84               	bcf	132,5,c	;volatile
  1060  0014C2                     
  1061                           ;./stepper.h: 241:     _delay((unsigned long)((10)*(64000000/4000.0)));
  1062  0014C2  0ED0               	movlw	208
  1063  0014C4  6E08               	movwf	??_motorCW^0,c
  1064  0014C6  0ECA               	movlw	202
  1065  0014C8                     u1497:
  1066  0014C8  2EE8               	decfsz	wreg,f,c
  1067  0014CA  D7FE               	bra	u1497
  1068  0014CC  2E08               	decfsz	??_motorCW^0,f,c
  1069  0014CE  D7FC               	bra	u1497
  1070  0014D0  8884               	bsf	132,4,c	;volatile
  1071  0014D2  8284               	bsf	132,1,c	;volatile
  1072  0014D4                     
  1073                           ;./stepper.h: 246:     _delay((unsigned long)((30)*(64000000/4000.0)));
  1074  0014D4  0E03               	movlw	3
  1075  0014D6  6E09               	movwf	(??_motorCW+1)^0,c
  1076  0014D8  0E70               	movlw	112
  1077  0014DA  6E08               	movwf	??_motorCW^0,c
  1078  0014DC  0E5C               	movlw	92
  1079  0014DE                     u1507:
  1080  0014DE  2EE8               	decfsz	wreg,f,c
  1081  0014E0  D7FE               	bra	u1507
  1082  0014E2  2E08               	decfsz	??_motorCW^0,f,c
  1083  0014E4  D7FC               	bra	u1507
  1084  0014E6  2E09               	decfsz	(??_motorCW+1)^0,f,c
  1085  0014E8  D7FA               	bra	u1507
  1086  0014EA  D000               	nop2	
  1087  0014EC                     
  1088                           ;./stepper.h: 247:     delay_ms(delay);
  1089  0014EC  C004  F001         	movff	motorCW@delay,delay_ms@milliseconds
  1090  0014F0  C005  F002         	movff	motorCW@delay+1,delay_ms@milliseconds+1
  1091  0014F4  ECF0  F00E         	call	_delay_ms	;wreg free
  1092  0014F8  9884               	bcf	132,4,c	;volatile
  1093  0014FA  9284               	bcf	132,1,c	;volatile
  1094  0014FC                     
  1095                           ;./stepper.h: 252:     _delay((unsigned long)((30)*(64000000/4000.0)));
  1096  0014FC  0E03               	movlw	3
  1097  0014FE  6E09               	movwf	(??_motorCW+1)^0,c
  1098  001500  0E70               	movlw	112
  1099  001502  6E08               	movwf	??_motorCW^0,c
  1100  001504  0E5C               	movlw	92
  1101  001506                     u1517:
  1102  001506  2EE8               	decfsz	wreg,f,c
  1103  001508  D7FE               	bra	u1517
  1104  00150A  2E08               	decfsz	??_motorCW^0,f,c
  1105  00150C  D7FC               	bra	u1517
  1106  00150E  2E09               	decfsz	(??_motorCW+1)^0,f,c
  1107  001510  D7FA               	bra	u1517
  1108  001512  D000               	nop2	
  1109  001514  8084               	bsf	132,0,c	;volatile
  1110  001516  9484               	bcf	132,2,c	;volatile
  1111  001518                     
  1112                           ;./stepper.h: 259:     _delay((unsigned long)((10)*(64000000/4000.0)));
  1113  001518  0ED0               	movlw	208
  1114  00151A  6E08               	movwf	??_motorCW^0,c
  1115  00151C  0ECA               	movlw	202
  1116  00151E                     u1527:
  1117  00151E  2EE8               	decfsz	wreg,f,c
  1118  001520  D7FE               	bra	u1527
  1119  001522  2E08               	decfsz	??_motorCW^0,f,c
  1120  001524  D7FC               	bra	u1527
  1121  001526  8684               	bsf	132,3,c	;volatile
  1122  001528  9A84               	bcf	132,5,c	;volatile
  1123  00152A                     
  1124                           ;./stepper.h: 263:     _delay((unsigned long)((10)*(64000000/4000.0)));
  1125  00152A  0ED0               	movlw	208
  1126  00152C  6E08               	movwf	??_motorCW^0,c
  1127  00152E  0ECA               	movlw	202
  1128  001530                     u1537:
  1129  001530  2EE8               	decfsz	wreg,f,c
  1130  001532  D7FE               	bra	u1537
  1131  001534  2E08               	decfsz	??_motorCW^0,f,c
  1132  001536  D7FC               	bra	u1537
  1133  001538  8884               	bsf	132,4,c	;volatile
  1134  00153A  8284               	bsf	132,1,c	;volatile
  1135  00153C                     
  1136                           ;./stepper.h: 268:     _delay((unsigned long)((30)*(64000000/4000.0)));
  1137  00153C  0E03               	movlw	3
  1138  00153E  6E09               	movwf	(??_motorCW+1)^0,c
  1139  001540  0E70               	movlw	112
  1140  001542  6E08               	movwf	??_motorCW^0,c
  1141  001544  0E5C               	movlw	92
  1142  001546                     u1547:
  1143  001546  2EE8               	decfsz	wreg,f,c
  1144  001548  D7FE               	bra	u1547
  1145  00154A  2E08               	decfsz	??_motorCW^0,f,c
  1146  00154C  D7FC               	bra	u1547
  1147  00154E  2E09               	decfsz	(??_motorCW+1)^0,f,c
  1148  001550  D7FA               	bra	u1547
  1149  001552  D000               	nop2	
  1150  001554                     
  1151                           ;./stepper.h: 269:     delay_ms(delay);
  1152  001554  C004  F001         	movff	motorCW@delay,delay_ms@milliseconds
  1153  001558  C005  F002         	movff	motorCW@delay+1,delay_ms@milliseconds+1
  1154  00155C  ECF0  F00E         	call	_delay_ms	;wreg free
  1155  001560                     
  1156                           ;./stepper.h: 272:     }
  1157  001560  4A0A               	infsnz	motorCW@i^0,f,c
  1158  001562  2A0B               	incf	(motorCW@i+1)^0,f,c
  1159  001564                     l3164:
  1160  001564  5006               	movf	motorCW@step^0,w,c
  1161  001566  5C0A               	subwf	motorCW@i^0,w,c
  1162  001568  500B               	movf	(motorCW@i+1)^0,w,c
  1163  00156A  0A80               	xorlw	128
  1164  00156C  6E08               	movwf	??_motorCW^0,c
  1165  00156E  5007               	movf	(motorCW@step+1)^0,w,c
  1166  001570  0A80               	xorlw	128
  1167  001572  5808               	subwfb	??_motorCW^0,w,c
  1168  001574  A0D8               	btfss	status,0,c
  1169  001576  EFBF  F00A         	goto	u861
  1170  00157A  EFC1  F00A         	goto	u860
  1171  00157E                     u861:
  1172  00157E  EFBA  F009         	goto	l905
  1173  001582                     u860:
  1174  001582  9884               	bcf	132,4,c	;volatile
  1175  001584  9284               	bcf	132,1,c	;volatile
  1176  001586                     
  1177                           ;./stepper.h: 276:     _delay((unsigned long)((30)*(64000000/4000.0)));
  1178  001586  0E03               	movlw	3
  1179  001588  6E09               	movwf	(??_motorCW+1)^0,c
  1180  00158A  0E70               	movlw	112
  1181  00158C  6E08               	movwf	??_motorCW^0,c
  1182  00158E  0E5C               	movlw	92
  1183  001590                     u1557:
  1184  001590  2EE8               	decfsz	wreg,f,c
  1185  001592  D7FE               	bra	u1557
  1186  001594  2E08               	decfsz	??_motorCW^0,f,c
  1187  001596  D7FC               	bra	u1557
  1188  001598  2E09               	decfsz	(??_motorCW+1)^0,f,c
  1189  00159A  D7FA               	bra	u1557
  1190  00159C  D000               	nop2	
  1191  00159E  0012               	return		;funcret
  1192  0015A0                     __end_of_motorCW:
  1193                           	callstack 0
  1194                           
  1195 ;; *************** function _motorCCW *****************
  1196 ;; Defined at:
  1197 ;;		line 14 in file "./stepper.h"
  1198 ;; Parameters:    Size  Location     Type
  1199 ;;  delay           2    3[COMRAM] int 
  1200 ;;  step            2    5[COMRAM] int 
  1201 ;; Auto vars:     Size  Location     Type
  1202 ;;  i               2    9[COMRAM] int 
  1203 ;; Return value:  Size  Location     Type
  1204 ;;                  1    wreg      void 
  1205 ;; Registers used:
  1206 ;;		wreg, status,2, status,0, cstack
  1207 ;; Tracked objects:
  1208 ;;		On entry : 0/0
  1209 ;;		On exit  : 0/0
  1210 ;;		Unchanged: 0/0
  1211 ;; Data sizes:     COMRAM   BANK0   BANK1   BANK2   BANK3   BANK4   BANK5   BANK6   BANK7   BANK8   BANK9  BANK10  BANK1
      +1  BANK12  BANK13  BANK14
  1212 ;;      Params:         4       0       0       0       0       0       0       0       0       0       0       0       
      +0       0       0       0
  1213 ;;      Locals:         2       0       0       0       0       0       0       0       0       0       0       0       
      +0       0       0       0
  1214 ;;      Temps:          2       0       0       0       0       0       0       0       0       0       0       0       
      +0       0       0       0
  1215 ;;      Totals:         8       0       0       0       0       0       0       0       0       0       0       0       
      +0       0       0       0
  1216 ;;Total ram usage:        8 bytes
  1217 ;; Hardware stack levels used: 1
  1218 ;; Hardware stack levels required when called: 1
  1219 ;; This function calls:
  1220 ;;		_delay_ms
  1221 ;; This function is called by:
  1222 ;;		_main
  1223 ;; This function uses a non-reentrant model
  1224 ;;
  1225                           
  1226                           	psect	text2
  1227  0015A0                     __ptext2:
  1228                           	callstack 0
  1229  0015A0                     _motorCCW:
  1230                           	callstack 29
  1231  0015A0  9884               	bcf	132,4,c	;volatile
  1232  0015A2  9284               	bcf	132,1,c	;volatile
  1233  0015A4                     
  1234                           ;./stepper.h: 25:     _delay((unsigned long)((30)*(64000000/4000.0)));
  1235  0015A4  0E03               	movlw	3
  1236  0015A6  6E09               	movwf	(??_motorCCW+1)^0,c
  1237  0015A8  0E70               	movlw	112
  1238  0015AA  6E08               	movwf	??_motorCCW^0,c
  1239  0015AC  0E5C               	movlw	92
  1240  0015AE                     u1567:
  1241  0015AE  2EE8               	decfsz	wreg,f,c
  1242  0015B0  D7FE               	bra	u1567
  1243  0015B2  2E08               	decfsz	??_motorCCW^0,f,c
  1244  0015B4  D7FC               	bra	u1567
  1245  0015B6  2E09               	decfsz	(??_motorCCW+1)^0,f,c
  1246  0015B8  D7FA               	bra	u1567
  1247  0015BA  D000               	nop2	
  1248  0015BC                     
  1249                           ;./stepper.h: 28:     for(int i = 0; i < step; i++)
  1250  0015BC  0E00               	movlw	0
  1251  0015BE  6E0B               	movwf	(motorCCW@i+1)^0,c
  1252  0015C0  0E00               	movlw	0
  1253  0015C2  6E0A               	movwf	motorCCW@i^0,c
  1254  0015C4  EFDC  F00B         	goto	l3054
  1255  0015C8                     l815:
  1256  0015C8  8084               	bsf	132,0,c	;volatile
  1257  0015CA  9484               	bcf	132,2,c	;volatile
  1258  0015CC                     
  1259                           ;./stepper.h: 36:     _delay((unsigned long)((10)*(64000000/4000.0)));
  1260  0015CC  0ED0               	movlw	208
  1261  0015CE  6E08               	movwf	??_motorCCW^0,c
  1262  0015D0  0ECA               	movlw	202
  1263  0015D2                     u1577:
  1264  0015D2  2EE8               	decfsz	wreg,f,c
  1265  0015D4  D7FE               	bra	u1577
  1266  0015D6  2E08               	decfsz	??_motorCCW^0,f,c
  1267  0015D8  D7FC               	bra	u1577
  1268  0015DA  8684               	bsf	132,3,c	;volatile
  1269  0015DC  9A84               	bcf	132,5,c	;volatile
  1270  0015DE                     
  1271                           ;./stepper.h: 41:      _delay((unsigned long)((10)*(64000000/4000.0)));
  1272  0015DE  0ED0               	movlw	208
  1273  0015E0  6E08               	movwf	??_motorCCW^0,c
  1274  0015E2  0ECA               	movlw	202
  1275  0015E4                     u1587:
  1276  0015E4  2EE8               	decfsz	wreg,f,c
  1277  0015E6  D7FE               	bra	u1587
  1278  0015E8  2E08               	decfsz	??_motorCCW^0,f,c
  1279  0015EA  D7FC               	bra	u1587
  1280  0015EC  8884               	bsf	132,4,c	;volatile
  1281  0015EE  8284               	bsf	132,1,c	;volatile
  1282  0015F0                     
  1283                           ;./stepper.h: 46:     _delay((unsigned long)((30)*(64000000/4000.0)));
  1284  0015F0  0E03               	movlw	3
  1285  0015F2  6E09               	movwf	(??_motorCCW+1)^0,c
  1286  0015F4  0E70               	movlw	112
  1287  0015F6  6E08               	movwf	??_motorCCW^0,c
  1288  0015F8  0E5C               	movlw	92
  1289  0015FA                     u1597:
  1290  0015FA  2EE8               	decfsz	wreg,f,c
  1291  0015FC  D7FE               	bra	u1597
  1292  0015FE  2E08               	decfsz	??_motorCCW^0,f,c
  1293  001600  D7FC               	bra	u1597
  1294  001602  2E09               	decfsz	(??_motorCCW+1)^0,f,c
  1295  001604  D7FA               	bra	u1597
  1296  001606  D000               	nop2	
  1297  001608                     
  1298                           ;./stepper.h: 47:     delay_ms(delay);
  1299  001608  C004  F001         	movff	motorCCW@delay,delay_ms@milliseconds
  1300  00160C  C005  F002         	movff	motorCCW@delay+1,delay_ms@milliseconds+1
  1301  001610  ECF0  F00E         	call	_delay_ms	;wreg free
  1302  001614  9884               	bcf	132,4,c	;volatile
  1303  001616  9284               	bcf	132,1,c	;volatile
  1304  001618                     
  1305                           ;./stepper.h: 52:     _delay((unsigned long)((30)*(64000000/4000.0)));
  1306  001618  0E03               	movlw	3
  1307  00161A  6E09               	movwf	(??_motorCCW+1)^0,c
  1308  00161C  0E70               	movlw	112
  1309  00161E  6E08               	movwf	??_motorCCW^0,c
  1310  001620  0E5C               	movlw	92
  1311  001622                     u1607:
  1312  001622  2EE8               	decfsz	wreg,f,c
  1313  001624  D7FE               	bra	u1607
  1314  001626  2E08               	decfsz	??_motorCCW^0,f,c
  1315  001628  D7FC               	bra	u1607
  1316  00162A  2E09               	decfsz	(??_motorCCW+1)^0,f,c
  1317  00162C  D7FA               	bra	u1607
  1318  00162E  D000               	nop2	
  1319  001630  9084               	bcf	132,0,c	;volatile
  1320  001632  8484               	bsf	132,2,c	;volatile
  1321  001634                     
  1322                           ;./stepper.h: 59:     _delay((unsigned long)((10)*(64000000/4000.0)));
  1323  001634  0ED0               	movlw	208
  1324  001636  6E08               	movwf	??_motorCCW^0,c
  1325  001638  0ECA               	movlw	202
  1326  00163A                     u1617:
  1327  00163A  2EE8               	decfsz	wreg,f,c
  1328  00163C  D7FE               	bra	u1617
  1329  00163E  2E08               	decfsz	??_motorCCW^0,f,c
  1330  001640  D7FC               	bra	u1617
  1331  001642  8684               	bsf	132,3,c	;volatile
  1332  001644  9A84               	bcf	132,5,c	;volatile
  1333  001646                     
  1334                           ;./stepper.h: 64:     _delay((unsigned long)((10)*(64000000/4000.0)));
  1335  001646  0ED0               	movlw	208
  1336  001648  6E08               	movwf	??_motorCCW^0,c
  1337  00164A  0ECA               	movlw	202
  1338  00164C                     u1627:
  1339  00164C  2EE8               	decfsz	wreg,f,c
  1340  00164E  D7FE               	bra	u1627
  1341  001650  2E08               	decfsz	??_motorCCW^0,f,c
  1342  001652  D7FC               	bra	u1627
  1343  001654  8884               	bsf	132,4,c	;volatile
  1344  001656  8284               	bsf	132,1,c	;volatile
  1345  001658                     
  1346                           ;./stepper.h: 69:     _delay((unsigned long)((30)*(64000000/4000.0)));
  1347  001658  0E03               	movlw	3
  1348  00165A  6E09               	movwf	(??_motorCCW+1)^0,c
  1349  00165C  0E70               	movlw	112
  1350  00165E  6E08               	movwf	??_motorCCW^0,c
  1351  001660  0E5C               	movlw	92
  1352  001662                     u1637:
  1353  001662  2EE8               	decfsz	wreg,f,c
  1354  001664  D7FE               	bra	u1637
  1355  001666  2E08               	decfsz	??_motorCCW^0,f,c
  1356  001668  D7FC               	bra	u1637
  1357  00166A  2E09               	decfsz	(??_motorCCW+1)^0,f,c
  1358  00166C  D7FA               	bra	u1637
  1359  00166E  D000               	nop2	
  1360  001670                     
  1361                           ;./stepper.h: 70:     delay_ms(delay);
  1362  001670  C004  F001         	movff	motorCCW@delay,delay_ms@milliseconds
  1363  001674  C005  F002         	movff	motorCCW@delay+1,delay_ms@milliseconds+1
  1364  001678  ECF0  F00E         	call	_delay_ms	;wreg free
  1365  00167C  9884               	bcf	132,4,c	;volatile
  1366  00167E  9284               	bcf	132,1,c	;volatile
  1367  001680                     
  1368                           ;./stepper.h: 75:     _delay((unsigned long)((30)*(64000000/4000.0)));
  1369  001680  0E03               	movlw	3
  1370  001682  6E09               	movwf	(??_motorCCW+1)^0,c
  1371  001684  0E70               	movlw	112
  1372  001686  6E08               	movwf	??_motorCCW^0,c
  1373  001688  0E5C               	movlw	92
  1374  00168A                     u1647:
  1375  00168A  2EE8               	decfsz	wreg,f,c
  1376  00168C  D7FE               	bra	u1647
  1377  00168E  2E08               	decfsz	??_motorCCW^0,f,c
  1378  001690  D7FC               	bra	u1647
  1379  001692  2E09               	decfsz	(??_motorCCW+1)^0,f,c
  1380  001694  D7FA               	bra	u1647
  1381  001696  D000               	nop2	
  1382  001698  9084               	bcf	132,0,c	;volatile
  1383  00169A  8484               	bsf	132,2,c	;volatile
  1384  00169C                     
  1385                           ;./stepper.h: 82:     _delay((unsigned long)((10)*(64000000/4000.0)));
  1386  00169C  0ED0               	movlw	208
  1387  00169E  6E08               	movwf	??_motorCCW^0,c
  1388  0016A0  0ECA               	movlw	202
  1389  0016A2                     u1657:
  1390  0016A2  2EE8               	decfsz	wreg,f,c
  1391  0016A4  D7FE               	bra	u1657
  1392  0016A6  2E08               	decfsz	??_motorCCW^0,f,c
  1393  0016A8  D7FC               	bra	u1657
  1394  0016AA  9684               	bcf	132,3,c	;volatile
  1395  0016AC  8A84               	bsf	132,5,c	;volatile
  1396  0016AE                     
  1397                           ;./stepper.h: 86:     _delay((unsigned long)((10)*(64000000/4000.0)));
  1398  0016AE  0ED0               	movlw	208
  1399  0016B0  6E08               	movwf	??_motorCCW^0,c
  1400  0016B2  0ECA               	movlw	202
  1401  0016B4                     u1667:
  1402  0016B4  2EE8               	decfsz	wreg,f,c
  1403  0016B6  D7FE               	bra	u1667
  1404  0016B8  2E08               	decfsz	??_motorCCW^0,f,c
  1405  0016BA  D7FC               	bra	u1667
  1406  0016BC  8884               	bsf	132,4,c	;volatile
  1407  0016BE  8284               	bsf	132,1,c	;volatile
  1408  0016C0                     
  1409                           ;./stepper.h: 92:     _delay((unsigned long)((30)*(64000000/4000.0)));
  1410  0016C0  0E03               	movlw	3
  1411  0016C2  6E09               	movwf	(??_motorCCW+1)^0,c
  1412  0016C4  0E70               	movlw	112
  1413  0016C6  6E08               	movwf	??_motorCCW^0,c
  1414  0016C8  0E5C               	movlw	92
  1415  0016CA                     u1677:
  1416  0016CA  2EE8               	decfsz	wreg,f,c
  1417  0016CC  D7FE               	bra	u1677
  1418  0016CE  2E08               	decfsz	??_motorCCW^0,f,c
  1419  0016D0  D7FC               	bra	u1677
  1420  0016D2  2E09               	decfsz	(??_motorCCW+1)^0,f,c
  1421  0016D4  D7FA               	bra	u1677
  1422  0016D6  D000               	nop2	
  1423  0016D8                     
  1424                           ;./stepper.h: 93:     delay_ms(delay);
  1425  0016D8  C004  F001         	movff	motorCCW@delay,delay_ms@milliseconds
  1426  0016DC  C005  F002         	movff	motorCCW@delay+1,delay_ms@milliseconds+1
  1427  0016E0  ECF0  F00E         	call	_delay_ms	;wreg free
  1428  0016E4  9884               	bcf	132,4,c	;volatile
  1429  0016E6  9284               	bcf	132,1,c	;volatile
  1430  0016E8                     
  1431                           ;./stepper.h: 98:     _delay((unsigned long)((30)*(64000000/4000.0)));
  1432  0016E8  0E03               	movlw	3
  1433  0016EA  6E09               	movwf	(??_motorCCW+1)^0,c
  1434  0016EC  0E70               	movlw	112
  1435  0016EE  6E08               	movwf	??_motorCCW^0,c
  1436  0016F0  0E5C               	movlw	92
  1437  0016F2                     u1687:
  1438  0016F2  2EE8               	decfsz	wreg,f,c
  1439  0016F4  D7FE               	bra	u1687
  1440  0016F6  2E08               	decfsz	??_motorCCW^0,f,c
  1441  0016F8  D7FC               	bra	u1687
  1442  0016FA  2E09               	decfsz	(??_motorCCW+1)^0,f,c
  1443  0016FC  D7FA               	bra	u1687
  1444  0016FE  D000               	nop2	
  1445  001700  8084               	bsf	132,0,c	;volatile
  1446  001702  9484               	bcf	132,2,c	;volatile
  1447  001704                     
  1448                           ;./stepper.h: 105:     _delay((unsigned long)((10)*(64000000/4000.0)));
  1449  001704  0ED0               	movlw	208
  1450  001706  6E08               	movwf	??_motorCCW^0,c
  1451  001708  0ECA               	movlw	202
  1452  00170A                     u1697:
  1453  00170A  2EE8               	decfsz	wreg,f,c
  1454  00170C  D7FE               	bra	u1697
  1455  00170E  2E08               	decfsz	??_motorCCW^0,f,c
  1456  001710  D7FC               	bra	u1697
  1457  001712  9684               	bcf	132,3,c	;volatile
  1458  001714  8A84               	bsf	132,5,c	;volatile
  1459  001716                     
  1460                           ;./stepper.h: 109:     _delay((unsigned long)((10)*(64000000/4000.0)));
  1461  001716  0ED0               	movlw	208
  1462  001718  6E08               	movwf	??_motorCCW^0,c
  1463  00171A  0ECA               	movlw	202
  1464  00171C                     u1707:
  1465  00171C  2EE8               	decfsz	wreg,f,c
  1466  00171E  D7FE               	bra	u1707
  1467  001720  2E08               	decfsz	??_motorCCW^0,f,c
  1468  001722  D7FC               	bra	u1707
  1469  001724  8884               	bsf	132,4,c	;volatile
  1470  001726  8284               	bsf	132,1,c	;volatile
  1471  001728                     
  1472                           ;./stepper.h: 114:     _delay((unsigned long)((30)*(64000000/4000.0)));
  1473  001728  0E03               	movlw	3
  1474  00172A  6E09               	movwf	(??_motorCCW+1)^0,c
  1475  00172C  0E70               	movlw	112
  1476  00172E  6E08               	movwf	??_motorCCW^0,c
  1477  001730  0E5C               	movlw	92
  1478  001732                     u1717:
  1479  001732  2EE8               	decfsz	wreg,f,c
  1480  001734  D7FE               	bra	u1717
  1481  001736  2E08               	decfsz	??_motorCCW^0,f,c
  1482  001738  D7FC               	bra	u1717
  1483  00173A  2E09               	decfsz	(??_motorCCW+1)^0,f,c
  1484  00173C  D7FA               	bra	u1717
  1485  00173E  D000               	nop2	
  1486  001740                     
  1487                           ;./stepper.h: 115:     delay_ms(delay);
  1488  001740  C004  F001         	movff	motorCCW@delay,delay_ms@milliseconds
  1489  001744  C005  F002         	movff	motorCCW@delay+1,delay_ms@milliseconds+1
  1490  001748  ECF0  F00E         	call	_delay_ms	;wreg free
  1491  00174C  9884               	bcf	132,4,c	;volatile
  1492  00174E  9284               	bcf	132,1,c	;volatile
  1493  001750                     
  1494                           ;./stepper.h: 121:     _delay((unsigned long)((30)*(64000000/4000.0)));
  1495  001750  0E03               	movlw	3
  1496  001752  6E09               	movwf	(??_motorCCW+1)^0,c
  1497  001754  0E70               	movlw	112
  1498  001756  6E08               	movwf	??_motorCCW^0,c
  1499  001758  0E5C               	movlw	92
  1500  00175A                     u1727:
  1501  00175A  2EE8               	decfsz	wreg,f,c
  1502  00175C  D7FE               	bra	u1727
  1503  00175E  2E08               	decfsz	??_motorCCW^0,f,c
  1504  001760  D7FC               	bra	u1727
  1505  001762  2E09               	decfsz	(??_motorCCW+1)^0,f,c
  1506  001764  D7FA               	bra	u1727
  1507  001766  D000               	nop2	
  1508  001768  8084               	bsf	132,0,c	;volatile
  1509  00176A  9484               	bcf	132,2,c	;volatile
  1510  00176C                     
  1511                           ;./stepper.h: 128:     _delay((unsigned long)((10)*(64000000/4000.0)));
  1512  00176C  0ED0               	movlw	208
  1513  00176E  6E08               	movwf	??_motorCCW^0,c
  1514  001770  0ECA               	movlw	202
  1515  001772                     u1737:
  1516  001772  2EE8               	decfsz	wreg,f,c
  1517  001774  D7FE               	bra	u1737
  1518  001776  2E08               	decfsz	??_motorCCW^0,f,c
  1519  001778  D7FC               	bra	u1737
  1520  00177A  8684               	bsf	132,3,c	;volatile
  1521  00177C  9A84               	bcf	132,5,c	;volatile
  1522  00177E                     
  1523                           ;./stepper.h: 132:     _delay((unsigned long)((10)*(64000000/4000.0)));
  1524  00177E  0ED0               	movlw	208
  1525  001780  6E08               	movwf	??_motorCCW^0,c
  1526  001782  0ECA               	movlw	202
  1527  001784                     u1747:
  1528  001784  2EE8               	decfsz	wreg,f,c
  1529  001786  D7FE               	bra	u1747
  1530  001788  2E08               	decfsz	??_motorCCW^0,f,c
  1531  00178A  D7FC               	bra	u1747
  1532  00178C  8884               	bsf	132,4,c	;volatile
  1533  00178E  8284               	bsf	132,1,c	;volatile
  1534  001790                     
  1535                           ;./stepper.h: 138:     _delay((unsigned long)((30)*(64000000/4000.0)));
  1536  001790  0E03               	movlw	3
  1537  001792  6E09               	movwf	(??_motorCCW+1)^0,c
  1538  001794  0E70               	movlw	112
  1539  001796  6E08               	movwf	??_motorCCW^0,c
  1540  001798  0E5C               	movlw	92
  1541  00179A                     u1757:
  1542  00179A  2EE8               	decfsz	wreg,f,c
  1543  00179C  D7FE               	bra	u1757
  1544  00179E  2E08               	decfsz	??_motorCCW^0,f,c
  1545  0017A0  D7FC               	bra	u1757
  1546  0017A2  2E09               	decfsz	(??_motorCCW+1)^0,f,c
  1547  0017A4  D7FA               	bra	u1757
  1548  0017A6  D000               	nop2	
  1549  0017A8                     
  1550                           ;./stepper.h: 139:     delay_ms(delay);
  1551  0017A8  C004  F001         	movff	motorCCW@delay,delay_ms@milliseconds
  1552  0017AC  C005  F002         	movff	motorCCW@delay+1,delay_ms@milliseconds+1
  1553  0017B0  ECF0  F00E         	call	_delay_ms	;wreg free
  1554  0017B4                     
  1555                           ;./stepper.h: 142:     }
  1556  0017B4  4A0A               	infsnz	motorCCW@i^0,f,c
  1557  0017B6  2A0B               	incf	(motorCCW@i+1)^0,f,c
  1558  0017B8                     l3054:
  1559  0017B8  5006               	movf	motorCCW@step^0,w,c
  1560  0017BA  5C0A               	subwf	motorCCW@i^0,w,c
  1561  0017BC  500B               	movf	(motorCCW@i+1)^0,w,c
  1562  0017BE  0A80               	xorlw	128
  1563  0017C0  6E08               	movwf	??_motorCCW^0,c
  1564  0017C2  5007               	movf	(motorCCW@step+1)^0,w,c
  1565  0017C4  0A80               	xorlw	128
  1566  0017C6  5808               	subwfb	??_motorCCW^0,w,c
  1567  0017C8  A0D8               	btfss	status,0,c
  1568  0017CA  EFE9  F00B         	goto	u851
  1569  0017CE  EFEB  F00B         	goto	u850
  1570  0017D2                     u851:
  1571  0017D2  EFE4  F00A         	goto	l815
  1572  0017D6                     u850:
  1573  0017D6  9884               	bcf	132,4,c	;volatile
  1574  0017D8  9284               	bcf	132,1,c	;volatile
  1575  0017DA                     
  1576                           ;./stepper.h: 147:     _delay((unsigned long)((30)*(64000000/4000.0)));
  1577  0017DA  0E03               	movlw	3
  1578  0017DC  6E09               	movwf	(??_motorCCW+1)^0,c
  1579  0017DE  0E70               	movlw	112
  1580  0017E0  6E08               	movwf	??_motorCCW^0,c
  1581  0017E2  0E5C               	movlw	92
  1582  0017E4                     u1767:
  1583  0017E4  2EE8               	decfsz	wreg,f,c
  1584  0017E6  D7FE               	bra	u1767
  1585  0017E8  2E08               	decfsz	??_motorCCW^0,f,c
  1586  0017EA  D7FC               	bra	u1767
  1587  0017EC  2E09               	decfsz	(??_motorCCW+1)^0,f,c
  1588  0017EE  D7FA               	bra	u1767
  1589  0017F0  D000               	nop2	
  1590  0017F2  0012               	return		;funcret
  1591  0017F4                     __end_of_motorCCW:
  1592                           	callstack 0
  1593                           
  1594 ;; *************** function _delay_ms *****************
  1595 ;; Defined at:
  1596 ;;		line 6 in file "./stepper.h"
  1597 ;; Parameters:    Size  Location     Type
  1598 ;;  milliseconds    2    0[COMRAM] int 
  1599 ;; Auto vars:     Size  Location     Type
  1600 ;;		None
  1601 ;; Return value:  Size  Location     Type
  1602 ;;                  1    wreg      void 
  1603 ;; Registers used:
  1604 ;;		wreg, status,2, status,0
  1605 ;; Tracked objects:
  1606 ;;		On entry : 0/0
  1607 ;;		On exit  : 0/0
  1608 ;;		Unchanged: 0/0
  1609 ;; Data sizes:     COMRAM   BANK0   BANK1   BANK2   BANK3   BANK4   BANK5   BANK6   BANK7   BANK8   BANK9  BANK10  BANK1
      +1  BANK12  BANK13  BANK14
  1610 ;;      Params:         2       0       0       0       0       0       0       0       0       0       0       0       
      +0       0       0       0
  1611 ;;      Locals:         0       0       0       0       0       0       0       0       0       0       0       0       
      +0       0       0       0
  1612 ;;      Temps:          1       0       0       0       0       0       0       0       0       0       0       0       
      +0       0       0       0
  1613 ;;      Totals:         3       0       0       0       0       0       0       0       0       0       0       0       
      +0       0       0       0
  1614 ;;Total ram usage:        3 bytes
  1615 ;; Hardware stack levels used: 1
  1616 ;; This function calls:
  1617 ;;		Nothing
  1618 ;; This function is called by:
  1619 ;;		_motorCCW
  1620 ;;		_motorCW
  1621 ;; This function uses a non-reentrant model
  1622 ;;
  1623                           
  1624                           	psect	text3
  1625  001DE0                     __ptext3:
  1626                           	callstack 0
  1627  001DE0                     _delay_ms:
  1628                           	callstack 29
  1629  001DE0                     
  1630                           ;./stepper.h: 6: void delay_ms(int milliseconds);./stepper.h: 7: {;./stepper.h: 8:    wh
      +                          ile(milliseconds > 0)
  1631  001DE0  EFFD  F00E         	goto	l803
  1632  001DE4                     l2928:
  1633                           
  1634                           ;./stepper.h: 9:    {;./stepper.h: 10:       milliseconds--;
  1635  001DE4  0601               	decf	delay_ms@milliseconds^0,f,c
  1636  001DE6  A0D8               	btfss	status,0,c
  1637  001DE8  0602               	decf	(delay_ms@milliseconds+1)^0,f,c
  1638  001DEA                     
  1639                           ;./stepper.h: 11:        _delay((unsigned long)((990)*(64000000/4000000.0)));
  1640  001DEA  0E15               	movlw	21
  1641  001DEC  6E03               	movwf	??_delay_ms^0,c
  1642  001DEE  0E91               	movlw	145
  1643  001DF0                     u1777:
  1644  001DF0  2EE8               	decfsz	wreg,f,c
  1645  001DF2  D7FE               	bra	u1777
  1646  001DF4  2E03               	decfsz	??_delay_ms^0,f,c
  1647  001DF6  D7FC               	bra	u1777
  1648  001DF8  F000               	nop	
  1649  001DFA                     l803:
  1650                           
  1651                           ;./stepper.h: 8:    while(milliseconds > 0)
  1652  001DFA  BE02               	btfsc	(delay_ms@milliseconds+1)^0,7,c
  1653  001DFC  EF0A  F00F         	goto	u830
  1654  001E00  5002               	movf	(delay_ms@milliseconds+1)^0,w,c
  1655  001E02  E106               	bnz	u831
  1656  001E04  0401               	decf	delay_ms@milliseconds^0,w,c
  1657  001E06  B0D8               	btfsc	status,0,c
  1658  001E08  EF08  F00F         	goto	u831
  1659  001E0C  EF0A  F00F         	goto	u830
  1660  001E10                     u831:
  1661  001E10  EFF2  F00E         	goto	l2928
  1662  001E14                     u830:
  1663  001E14  0012               	return		;funcret
  1664  001E16                     __end_of_delay_ms:
  1665                           	callstack 0
  1666                           
  1667 ;; *************** function ___xxtofl *****************
  1668 ;; Defined at:
  1669 ;;		line 10 in file "C:\Program Files\Microchip\xc8\v2.32\pic\sources\c99\common\xxtofl.c"
  1670 ;; Parameters:    Size  Location     Type
  1671 ;;  sign            1    wreg     unsigned char 
  1672 ;;  val             4    0[COMRAM] long 
  1673 ;; Auto vars:     Size  Location     Type
  1674 ;;  sign            1    8[COMRAM] unsigned char 
  1675 ;;  arg             4   10[COMRAM] unsigned long 
  1676 ;;  exp             1    9[COMRAM] unsigned char 
  1677 ;; Return value:  Size  Location     Type
  1678 ;;                  4    0[COMRAM] unsigned char 
  1679 ;; Registers used:
  1680 ;;		wreg, status,2, status,0
  1681 ;; Tracked objects:
  1682 ;;		On entry : 0/0
  1683 ;;		On exit  : 0/0
  1684 ;;		Unchanged: 0/0
  1685 ;; Data sizes:     COMRAM   BANK0   BANK1   BANK2   BANK3   BANK4   BANK5   BANK6   BANK7   BANK8   BANK9  BANK10  BANK1
      +1  BANK12  BANK13  BANK14
  1686 ;;      Params:         4       0       0       0       0       0       0       0       0       0       0       0       
      +0       0       0       0
  1687 ;;      Locals:         6       0       0       0       0       0       0       0       0       0       0       0       
      +0       0       0       0
  1688 ;;      Temps:          4       0       0       0       0       0       0       0       0       0       0       0       
      +0       0       0       0
  1689 ;;      Totals:        14       0       0       0       0       0       0       0       0       0       0       0       
      +0       0       0       0
  1690 ;;Total ram usage:       14 bytes
  1691 ;; Hardware stack levels used: 1
  1692 ;; This function calls:
  1693 ;;		Nothing
  1694 ;; This function is called by:
  1695 ;;		_main
  1696 ;; This function uses a non-reentrant model
  1697 ;;
  1698                           
  1699                           	psect	text4
  1700  001A2C                     __ptext4:
  1701                           	callstack 0
  1702  001A2C                     ___xxtofl:
  1703                           	callstack 30
  1704                           
  1705                           ;incstack = 0
  1706                           ;___xxtofl@sign stored from wreg
  1707  001A2C  6E09               	movwf	___xxtofl@sign^0,c
  1708  001A2E  5009               	movf	___xxtofl@sign^0,w,c
  1709  001A30  B4D8               	btfsc	status,2,c
  1710  001A32  EF1D  F00D         	goto	u1111
  1711  001A36  EF1F  F00D         	goto	u1110
  1712  001A3A                     u1111:
  1713  001A3A  EF41  F00D         	goto	l1682
  1714  001A3E                     u1110:
  1715  001A3E  BE04               	btfsc	(___xxtofl@val+3)^0,7,c
  1716  001A40  EF26  F00D         	goto	u1120
  1717  001A44  EF24  F00D         	goto	u1121
  1718  001A48                     u1121:
  1719  001A48  EF41  F00D         	goto	l1682
  1720  001A4C                     u1120:
  1721  001A4C  C001  F005         	movff	___xxtofl@val,??___xxtofl
  1722  001A50  C002  F006         	movff	___xxtofl@val+1,??___xxtofl+1
  1723  001A54  C003  F007         	movff	___xxtofl@val+2,??___xxtofl+2
  1724  001A58  C004  F008         	movff	___xxtofl@val+3,??___xxtofl+3
  1725  001A5C  1E05               	comf	??___xxtofl^0,f,c
  1726  001A5E  1E06               	comf	(??___xxtofl+1)^0,f,c
  1727  001A60  1E07               	comf	(??___xxtofl+2)^0,f,c
  1728  001A62  1E08               	comf	(??___xxtofl+3)^0,f,c
  1729  001A64  2A05               	incf	??___xxtofl^0,f,c
  1730  001A66  0E00               	movlw	0
  1731  001A68  2206               	addwfc	(??___xxtofl+1)^0,f,c
  1732  001A6A  2207               	addwfc	(??___xxtofl+2)^0,f,c
  1733  001A6C  2208               	addwfc	(??___xxtofl+3)^0,f,c
  1734  001A6E  C005  F00B         	movff	??___xxtofl,___xxtofl@arg
  1735  001A72  C006  F00C         	movff	??___xxtofl+1,___xxtofl@arg+1
  1736  001A76  C007  F00D         	movff	??___xxtofl+2,___xxtofl@arg+2
  1737  001A7A  C008  F00E         	movff	??___xxtofl+3,___xxtofl@arg+3
  1738  001A7E  EF49  F00D         	goto	l3326
  1739  001A82                     l1682:
  1740  001A82  C001  F00B         	movff	___xxtofl@val,___xxtofl@arg
  1741  001A86  C002  F00C         	movff	___xxtofl@val+1,___xxtofl@arg+1
  1742  001A8A  C003  F00D         	movff	___xxtofl@val+2,___xxtofl@arg+2
  1743  001A8E  C004  F00E         	movff	___xxtofl@val+3,___xxtofl@arg+3
  1744  001A92                     l3326:
  1745  001A92  5001               	movf	___xxtofl@val^0,w,c
  1746  001A94  1002               	iorwf	(___xxtofl@val+1)^0,w,c
  1747  001A96  1003               	iorwf	(___xxtofl@val+2)^0,w,c
  1748  001A98  1004               	iorwf	(___xxtofl@val+3)^0,w,c
  1749  001A9A  A4D8               	btfss	status,2,c
  1750  001A9C  EF52  F00D         	goto	u1131
  1751  001AA0  EF54  F00D         	goto	u1130
  1752  001AA4                     u1131:
  1753  001AA4  EF5E  F00D         	goto	l3332
  1754  001AA8                     u1130:
  1755  001AA8  0E00               	movlw	0
  1756  001AAA  6E01               	movwf	?___xxtofl^0,c
  1757  001AAC  0E00               	movlw	0
  1758  001AAE  6E02               	movwf	(?___xxtofl+1)^0,c
  1759  001AB0  0E00               	movlw	0
  1760  001AB2  6E03               	movwf	(?___xxtofl+2)^0,c
  1761  001AB4  0E00               	movlw	0
  1762  001AB6  6E04               	movwf	(?___xxtofl+3)^0,c
  1763  001AB8  EFEF  F00D         	goto	l1685
  1764  001ABC                     l3332:
  1765  001ABC  0E96               	movlw	150
  1766  001ABE  6E0A               	movwf	___xxtofl@exp^0,c
  1767  001AC0  EF68  F00D         	goto	l3336
  1768  001AC4                     l3334:
  1769  001AC4  2A0A               	incf	___xxtofl@exp^0,f,c
  1770  001AC6  90D8               	bcf	status,0,c
  1771  001AC8  320E               	rrcf	(___xxtofl@arg+3)^0,f,c
  1772  001ACA  320D               	rrcf	(___xxtofl@arg+2)^0,f,c
  1773  001ACC  320C               	rrcf	(___xxtofl@arg+1)^0,f,c
  1774  001ACE  320B               	rrcf	___xxtofl@arg^0,f,c
  1775  001AD0                     l3336:
  1776  001AD0  0E00               	movlw	0
  1777  001AD2  140B               	andwf	___xxtofl@arg^0,w,c
  1778  001AD4  6E05               	movwf	??___xxtofl^0,c
  1779  001AD6  0E00               	movlw	0
  1780  001AD8  140C               	andwf	(___xxtofl@arg+1)^0,w,c
  1781  001ADA  6E06               	movwf	(??___xxtofl+1)^0,c
  1782  001ADC  0E00               	movlw	0
  1783  001ADE  140D               	andwf	(___xxtofl@arg+2)^0,w,c
  1784  001AE0  6E07               	movwf	(??___xxtofl+2)^0,c
  1785  001AE2  0EFE               	movlw	254
  1786  001AE4  140E               	andwf	(___xxtofl@arg+3)^0,w,c
  1787  001AE6  6E08               	movwf	(??___xxtofl+3)^0,c
  1788  001AE8  5005               	movf	??___xxtofl^0,w,c
  1789  001AEA  1006               	iorwf	(??___xxtofl+1)^0,w,c
  1790  001AEC  1007               	iorwf	(??___xxtofl+2)^0,w,c
  1791  001AEE  1008               	iorwf	(??___xxtofl+3)^0,w,c
  1792  001AF0  A4D8               	btfss	status,2,c
  1793  001AF2  EF7D  F00D         	goto	u1141
  1794  001AF6  EF7F  F00D         	goto	u1140
  1795  001AFA                     u1141:
  1796  001AFA  EF62  F00D         	goto	l3334
  1797  001AFE                     u1140:
  1798  001AFE  EF8D  F00D         	goto	l1689
  1799  001B02                     l3338:
  1800  001B02  2A0A               	incf	___xxtofl@exp^0,f,c
  1801  001B04  0E01               	movlw	1
  1802  001B06  260B               	addwf	___xxtofl@arg^0,f,c
  1803  001B08  0E00               	movlw	0
  1804  001B0A  220C               	addwfc	(___xxtofl@arg+1)^0,f,c
  1805  001B0C  220D               	addwfc	(___xxtofl@arg+2)^0,f,c
  1806  001B0E  220E               	addwfc	(___xxtofl@arg+3)^0,f,c
  1807  001B10  90D8               	bcf	status,0,c
  1808  001B12  320E               	rrcf	(___xxtofl@arg+3)^0,f,c
  1809  001B14  320D               	rrcf	(___xxtofl@arg+2)^0,f,c
  1810  001B16  320C               	rrcf	(___xxtofl@arg+1)^0,f,c
  1811  001B18  320B               	rrcf	___xxtofl@arg^0,f,c
  1812  001B1A                     l1689:
  1813  001B1A  0E00               	movlw	0
  1814  001B1C  140B               	andwf	___xxtofl@arg^0,w,c
  1815  001B1E  6E05               	movwf	??___xxtofl^0,c
  1816  001B20  0E00               	movlw	0
  1817  001B22  140C               	andwf	(___xxtofl@arg+1)^0,w,c
  1818  001B24  6E06               	movwf	(??___xxtofl+1)^0,c
  1819  001B26  0E00               	movlw	0
  1820  001B28  140D               	andwf	(___xxtofl@arg+2)^0,w,c
  1821  001B2A  6E07               	movwf	(??___xxtofl+2)^0,c
  1822  001B2C  0EFF               	movlw	255
  1823  001B2E  140E               	andwf	(___xxtofl@arg+3)^0,w,c
  1824  001B30  6E08               	movwf	(??___xxtofl+3)^0,c
  1825  001B32  5005               	movf	??___xxtofl^0,w,c
  1826  001B34  1006               	iorwf	(??___xxtofl+1)^0,w,c
  1827  001B36  1007               	iorwf	(??___xxtofl+2)^0,w,c
  1828  001B38  1008               	iorwf	(??___xxtofl+3)^0,w,c
  1829  001B3A  A4D8               	btfss	status,2,c
  1830  001B3C  EFA2  F00D         	goto	u1151
  1831  001B40  EFA4  F00D         	goto	u1150
  1832  001B44                     u1151:
  1833  001B44  EF81  F00D         	goto	l3338
  1834  001B48                     u1150:
  1835  001B48  EFAC  F00D         	goto	l3346
  1836  001B4C                     l3344:
  1837  001B4C  060A               	decf	___xxtofl@exp^0,f,c
  1838  001B4E  90D8               	bcf	status,0,c
  1839  001B50  360B               	rlcf	___xxtofl@arg^0,f,c
  1840  001B52  360C               	rlcf	(___xxtofl@arg+1)^0,f,c
  1841  001B54  360D               	rlcf	(___xxtofl@arg+2)^0,f,c
  1842  001B56  360E               	rlcf	(___xxtofl@arg+3)^0,f,c
  1843  001B58                     l3346:
  1844  001B58  BE0D               	btfsc	(___xxtofl@arg+2)^0,7,c
  1845  001B5A  EFB1  F00D         	goto	u1161
  1846  001B5E  EFB3  F00D         	goto	u1160
  1847  001B62                     u1161:
  1848  001B62  EFBB  F00D         	goto	l1696
  1849  001B66                     u1160:
  1850  001B66  0E02               	movlw	2
  1851  001B68  600A               	cpfslt	___xxtofl@exp^0,c
  1852  001B6A  EFB9  F00D         	goto	u1171
  1853  001B6E  EFBB  F00D         	goto	u1170
  1854  001B72                     u1171:
  1855  001B72  EFA6  F00D         	goto	l3344
  1856  001B76                     u1170:
  1857  001B76                     l1696:
  1858  001B76  B00A               	btfsc	___xxtofl@exp^0,0,c
  1859  001B78  EFC0  F00D         	goto	u1181
  1860  001B7C  EFC2  F00D         	goto	u1180
  1861  001B80                     u1181:
  1862  001B80  EFC3  F00D         	goto	l3352
  1863  001B84                     u1180:
  1864  001B84  9E0D               	bcf	(___xxtofl@arg+2)^0,7,c
  1865  001B86                     l3352:
  1866  001B86  90D8               	bcf	status,0,c
  1867  001B88  320A               	rrcf	___xxtofl@exp^0,f,c
  1868  001B8A  C00A  F005         	movff	___xxtofl@exp,??___xxtofl
  1869  001B8E  6A06               	clrf	(??___xxtofl+1)^0,c
  1870  001B90  6A07               	clrf	(??___xxtofl+2)^0,c
  1871  001B92  6A08               	clrf	(??___xxtofl+3)^0,c
  1872  001B94  C005  F008         	movff	??___xxtofl,??___xxtofl+3
  1873  001B98  6A07               	clrf	(??___xxtofl+2)^0,c
  1874  001B9A  6A06               	clrf	(??___xxtofl+1)^0,c
  1875  001B9C  6A05               	clrf	??___xxtofl^0,c
  1876  001B9E  5005               	movf	??___xxtofl^0,w,c
  1877  001BA0  120B               	iorwf	___xxtofl@arg^0,f,c
  1878  001BA2  5006               	movf	(??___xxtofl+1)^0,w,c
  1879  001BA4  120C               	iorwf	(___xxtofl@arg+1)^0,f,c
  1880  001BA6  5007               	movf	(??___xxtofl+2)^0,w,c
  1881  001BA8  120D               	iorwf	(___xxtofl@arg+2)^0,f,c
  1882  001BAA  5008               	movf	(??___xxtofl+3)^0,w,c
  1883  001BAC  120E               	iorwf	(___xxtofl@arg+3)^0,f,c
  1884  001BAE  5009               	movf	___xxtofl@sign^0,w,c
  1885  001BB0  B4D8               	btfsc	status,2,c
  1886  001BB2  EFDD  F00D         	goto	u1191
  1887  001BB6  EFDF  F00D         	goto	u1190
  1888  001BBA                     u1191:
  1889  001BBA  EFE7  F00D         	goto	l3362
  1890  001BBE                     u1190:
  1891  001BBE  BE04               	btfsc	(___xxtofl@val+3)^0,7,c
  1892  001BC0  EFE6  F00D         	goto	u1200
  1893  001BC4  EFE4  F00D         	goto	u1201
  1894  001BC8                     u1201:
  1895  001BC8  EFE7  F00D         	goto	l3362
  1896  001BCC                     u1200:
  1897  001BCC  8E0E               	bsf	(___xxtofl@arg+3)^0,7,c
  1898  001BCE                     l3362:
  1899  001BCE  C00B  F001         	movff	___xxtofl@arg,?___xxtofl
  1900  001BD2  C00C  F002         	movff	___xxtofl@arg+1,?___xxtofl+1
  1901  001BD6  C00D  F003         	movff	___xxtofl@arg+2,?___xxtofl+2
  1902  001BDA  C00E  F004         	movff	___xxtofl@arg+3,?___xxtofl+3
  1903  001BDE                     l1685:
  1904  001BDE  0012               	return		;funcret
  1905  001BE0                     __end_of___xxtofl:
  1906                           	callstack 0
  1907                           
  1908 ;; *************** function ___flmul *****************
  1909 ;; Defined at:
  1910 ;;		line 8 in file "C:\Program Files\Microchip\xc8\v2.32\pic\sources\c99\common\sprcmul.c"
  1911 ;; Parameters:    Size  Location     Type
  1912 ;;  b               4    0[COMRAM] unsigned char 
  1913 ;;  a               4    4[COMRAM] unsigned char 
  1914 ;; Auto vars:     Size  Location     Type
  1915 ;;  prod            4   19[COMRAM] struct .
  1916 ;;  grs             4   13[COMRAM] unsigned long 
  1917 ;;  temp            2   23[COMRAM] struct .
  1918 ;;  bexp            1   18[COMRAM] unsigned char 
  1919 ;;  aexp            1   17[COMRAM] unsigned char 
  1920 ;;  sign            1   12[COMRAM] unsigned char 
  1921 ;; Return value:  Size  Location     Type
  1922 ;;                  4    0[COMRAM] unsigned char 
  1923 ;; Registers used:
  1924 ;;		wreg, status,2, status,0, prodl, prodh
  1925 ;; Tracked objects:
  1926 ;;		On entry : 0/0
  1927 ;;		On exit  : 0/0
  1928 ;;		Unchanged: 0/0
  1929 ;; Data sizes:     COMRAM   BANK0   BANK1   BANK2   BANK3   BANK4   BANK5   BANK6   BANK7   BANK8   BANK9  BANK10  BANK1
      +1  BANK12  BANK13  BANK14
  1930 ;;      Params:         8       0       0       0       0       0       0       0       0       0       0       0       
      +0       0       0       0
  1931 ;;      Locals:        13       0       0       0       0       0       0       0       0       0       0       0       
      +0       0       0       0
  1932 ;;      Temps:          4       0       0       0       0       0       0       0       0       0       0       0       
      +0       0       0       0
  1933 ;;      Totals:        25       0       0       0       0       0       0       0       0       0       0       0       
      +0       0       0       0
  1934 ;;Total ram usage:       25 bytes
  1935 ;; Hardware stack levels used: 1
  1936 ;; This function calls:
  1937 ;;		Nothing
  1938 ;; This function is called by:
  1939 ;;		_main
  1940 ;; This function uses a non-reentrant model
  1941 ;;
  1942                           
  1943                           	psect	text5
  1944  000F22                     __ptext5:
  1945                           	callstack 0
  1946  000F22                     ___flmul:
  1947                           	callstack 30
  1948  000F22  5004               	movf	(___flmul@b+3)^0,w,c
  1949  000F24  0B80               	andlw	128
  1950  000F26  6E0D               	movwf	___flmul@sign^0,c
  1951  000F28  5004               	movf	(___flmul@b+3)^0,w,c
  1952  000F2A  2404               	addwf	(___flmul@b+3)^0,w,c
  1953  000F2C  6E13               	movwf	___flmul@bexp^0,c
  1954  000F2E  AE03               	btfss	(___flmul@b+2)^0,7,c
  1955  000F30  EF9C  F007         	goto	u871
  1956  000F34  EF9E  F007         	goto	u870
  1957  000F38                     u871:
  1958  000F38  EF9F  F007         	goto	l3174
  1959  000F3C                     u870:
  1960  000F3C  8013               	bsf	___flmul@bexp^0,0,c
  1961  000F3E                     l3174:
  1962  000F3E  5013               	movf	___flmul@bexp^0,w,c
  1963  000F40  B4D8               	btfsc	status,2,c
  1964  000F42  EFA5  F007         	goto	u881
  1965  000F46  EFA7  F007         	goto	u880
  1966  000F4A                     u881:
  1967  000F4A  EFBA  F007         	goto	l3182
  1968  000F4E                     u880:
  1969  000F4E  2813               	incf	___flmul@bexp^0,w,c
  1970  000F50  A4D8               	btfss	status,2,c
  1971  000F52  EFAD  F007         	goto	u891
  1972  000F56  EFAF  F007         	goto	u890
  1973  000F5A                     u891:
  1974  000F5A  EFB7  F007         	goto	l3180
  1975  000F5E                     u890:
  1976  000F5E  0E00               	movlw	0
  1977  000F60  6E01               	movwf	___flmul@b^0,c
  1978  000F62  0E00               	movlw	0
  1979  000F64  6E02               	movwf	(___flmul@b+1)^0,c
  1980  000F66  0E00               	movlw	0
  1981  000F68  6E03               	movwf	(___flmul@b+2)^0,c
  1982  000F6A  0E00               	movlw	0
  1983  000F6C  6E04               	movwf	(___flmul@b+3)^0,c
  1984  000F6E                     l3180:
  1985  000F6E  8E03               	bsf	(___flmul@b+2)^0,7,c
  1986  000F70  EFC2  F007         	goto	l3184
  1987  000F74                     l3182:
  1988  000F74  0E00               	movlw	0
  1989  000F76  6E01               	movwf	___flmul@b^0,c
  1990  000F78  0E00               	movlw	0
  1991  000F7A  6E02               	movwf	(___flmul@b+1)^0,c
  1992  000F7C  0E00               	movlw	0
  1993  000F7E  6E03               	movwf	(___flmul@b+2)^0,c
  1994  000F80  0E00               	movlw	0
  1995  000F82  6E04               	movwf	(___flmul@b+3)^0,c
  1996  000F84                     l3184:
  1997  000F84  5008               	movf	(___flmul@a+3)^0,w,c
  1998  000F86  0B80               	andlw	128
  1999  000F88  1A0D               	xorwf	___flmul@sign^0,f,c
  2000  000F8A  5008               	movf	(___flmul@a+3)^0,w,c
  2001  000F8C  2408               	addwf	(___flmul@a+3)^0,w,c
  2002  000F8E  6E12               	movwf	___flmul@aexp^0,c
  2003  000F90  AE07               	btfss	(___flmul@a+2)^0,7,c
  2004  000F92  EFCD  F007         	goto	u901
  2005  000F96  EFCF  F007         	goto	u900
  2006  000F9A                     u901:
  2007  000F9A  EFD0  F007         	goto	l3192
  2008  000F9E                     u900:
  2009  000F9E  8012               	bsf	___flmul@aexp^0,0,c
  2010  000FA0                     l3192:
  2011  000FA0  5012               	movf	___flmul@aexp^0,w,c
  2012  000FA2  B4D8               	btfsc	status,2,c
  2013  000FA4  EFD6  F007         	goto	u911
  2014  000FA8  EFD8  F007         	goto	u910
  2015  000FAC                     u911:
  2016  000FAC  EFEB  F007         	goto	l3200
  2017  000FB0                     u910:
  2018  000FB0  2812               	incf	___flmul@aexp^0,w,c
  2019  000FB2  A4D8               	btfss	status,2,c
  2020  000FB4  EFDE  F007         	goto	u921
  2021  000FB8  EFE0  F007         	goto	u920
  2022  000FBC                     u921:
  2023  000FBC  EFE8  F007         	goto	l3198
  2024  000FC0                     u920:
  2025  000FC0  0E00               	movlw	0
  2026  000FC2  6E05               	movwf	___flmul@a^0,c
  2027  000FC4  0E00               	movlw	0
  2028  000FC6  6E06               	movwf	(___flmul@a+1)^0,c
  2029  000FC8  0E00               	movlw	0
  2030  000FCA  6E07               	movwf	(___flmul@a+2)^0,c
  2031  000FCC  0E00               	movlw	0
  2032  000FCE  6E08               	movwf	(___flmul@a+3)^0,c
  2033  000FD0                     l3198:
  2034  000FD0  8E07               	bsf	(___flmul@a+2)^0,7,c
  2035  000FD2  EFF3  F007         	goto	l1641
  2036  000FD6                     l3200:
  2037  000FD6  0E00               	movlw	0
  2038  000FD8  6E05               	movwf	___flmul@a^0,c
  2039  000FDA  0E00               	movlw	0
  2040  000FDC  6E06               	movwf	(___flmul@a+1)^0,c
  2041  000FDE  0E00               	movlw	0
  2042  000FE0  6E07               	movwf	(___flmul@a+2)^0,c
  2043  000FE2  0E00               	movlw	0
  2044  000FE4  6E08               	movwf	(___flmul@a+3)^0,c
  2045  000FE6                     l1641:
  2046  000FE6  5012               	movf	___flmul@aexp^0,w,c
  2047  000FE8  B4D8               	btfsc	status,2,c
  2048  000FEA  EFF9  F007         	goto	u931
  2049  000FEE  EFFB  F007         	goto	u930
  2050  000FF2                     u931:
  2051  000FF2  EF03  F008         	goto	l3204
  2052  000FF6                     u930:
  2053  000FF6  5013               	movf	___flmul@bexp^0,w,c
  2054  000FF8  A4D8               	btfss	status,2,c
  2055  000FFA  EF01  F008         	goto	u941
  2056  000FFE  EF03  F008         	goto	u940
  2057  001002                     u941:
  2058  001002  EF0D  F008         	goto	l3208
  2059  001006                     u940:
  2060  001006                     l3204:
  2061  001006  0E00               	movlw	0
  2062  001008  6E01               	movwf	?___flmul^0,c
  2063  00100A  0E00               	movlw	0
  2064  00100C  6E02               	movwf	(?___flmul+1)^0,c
  2065  00100E  0E00               	movlw	0
  2066  001010  6E03               	movwf	(?___flmul+2)^0,c
  2067  001012  0E00               	movlw	0
  2068  001014  6E04               	movwf	(?___flmul+3)^0,c
  2069  001016  EFA5  F009         	goto	l1645
  2070  00101A                     l3208:
  2071  00101A  5007               	movf	(___flmul@a+2)^0,w,c
  2072  00101C  0201               	mulwf	___flmul@b^0,c
  2073  00101E  CFF3 F018          	movff	prodl,___flmul@temp
  2074  001022  CFF4 F019          	movff	prodh,___flmul@temp+1
  2075  001026  5018               	movf	___flmul@temp^0,w,c
  2076  001028  6E0E               	movwf	___flmul@grs^0,c
  2077  00102A  6A0F               	clrf	(___flmul@grs+1)^0,c
  2078  00102C  6A10               	clrf	(___flmul@grs+2)^0,c
  2079  00102E  6A11               	clrf	(___flmul@grs+3)^0,c
  2080  001030  5019               	movf	(___flmul@temp+1)^0,w,c
  2081  001032  6E14               	movwf	___flmul@prod^0,c
  2082  001034  6A15               	clrf	(___flmul@prod+1)^0,c
  2083  001036  6A16               	clrf	(___flmul@prod+2)^0,c
  2084  001038  6A17               	clrf	(___flmul@prod+3)^0,c
  2085  00103A  5006               	movf	(___flmul@a+1)^0,w,c
  2086  00103C  0202               	mulwf	(___flmul@b+1)^0,c
  2087  00103E  CFF3 F018          	movff	prodl,___flmul@temp
  2088  001042  CFF4 F019          	movff	prodh,___flmul@temp+1
  2089  001046  5018               	movf	___flmul@temp^0,w,c
  2090  001048  260E               	addwf	___flmul@grs^0,f,c
  2091  00104A  0E00               	movlw	0
  2092  00104C  220F               	addwfc	(___flmul@grs+1)^0,f,c
  2093  00104E  2210               	addwfc	(___flmul@grs+2)^0,f,c
  2094  001050  2211               	addwfc	(___flmul@grs+3)^0,f,c
  2095  001052  5019               	movf	(___flmul@temp+1)^0,w,c
  2096  001054  2614               	addwf	___flmul@prod^0,f,c
  2097  001056  0E00               	movlw	0
  2098  001058  2215               	addwfc	(___flmul@prod+1)^0,f,c
  2099  00105A  2216               	addwfc	(___flmul@prod+2)^0,f,c
  2100  00105C  2217               	addwfc	(___flmul@prod+3)^0,f,c
  2101  00105E  5005               	movf	___flmul@a^0,w,c
  2102  001060  0203               	mulwf	(___flmul@b+2)^0,c
  2103  001062  CFF3 F018          	movff	prodl,___flmul@temp
  2104  001066  CFF4 F019          	movff	prodh,___flmul@temp+1
  2105  00106A  5018               	movf	___flmul@temp^0,w,c
  2106  00106C  260E               	addwf	___flmul@grs^0,f,c
  2107  00106E  0E00               	movlw	0
  2108  001070  220F               	addwfc	(___flmul@grs+1)^0,f,c
  2109  001072  2210               	addwfc	(___flmul@grs+2)^0,f,c
  2110  001074  2211               	addwfc	(___flmul@grs+3)^0,f,c
  2111  001076  5019               	movf	(___flmul@temp+1)^0,w,c
  2112  001078  2614               	addwf	___flmul@prod^0,f,c
  2113  00107A  0E00               	movlw	0
  2114  00107C  2215               	addwfc	(___flmul@prod+1)^0,f,c
  2115  00107E  2216               	addwfc	(___flmul@prod+2)^0,f,c
  2116  001080  2217               	addwfc	(___flmul@prod+3)^0,f,c
  2117  001082  C010  F011         	movff	___flmul@grs+2,___flmul@grs+3
  2118  001086  C00F  F010         	movff	___flmul@grs+1,___flmul@grs+2
  2119  00108A  C00E  F00F         	movff	___flmul@grs,___flmul@grs+1
  2120  00108E  6A0E               	clrf	___flmul@grs^0,c
  2121  001090  5005               	movf	___flmul@a^0,w,c
  2122  001092  0202               	mulwf	(___flmul@b+1)^0,c
  2123  001094  CFF3 F018          	movff	prodl,___flmul@temp
  2124  001098  CFF4 F019          	movff	prodh,___flmul@temp+1
  2125  00109C  5018               	movf	___flmul@temp^0,w,c
  2126  00109E  260E               	addwf	___flmul@grs^0,f,c
  2127  0010A0  5019               	movf	(___flmul@temp+1)^0,w,c
  2128  0010A2  220F               	addwfc	(___flmul@grs+1)^0,f,c
  2129  0010A4  0E00               	movlw	0
  2130  0010A6  2210               	addwfc	(___flmul@grs+2)^0,f,c
  2131  0010A8  0E00               	movlw	0
  2132  0010AA  2211               	addwfc	(___flmul@grs+3)^0,f,c
  2133  0010AC  5006               	movf	(___flmul@a+1)^0,w,c
  2134  0010AE  0201               	mulwf	___flmul@b^0,c
  2135  0010B0  CFF3 F018          	movff	prodl,___flmul@temp
  2136  0010B4  CFF4 F019          	movff	prodh,___flmul@temp+1
  2137  0010B8  5018               	movf	___flmul@temp^0,w,c
  2138  0010BA  260E               	addwf	___flmul@grs^0,f,c
  2139  0010BC  5019               	movf	(___flmul@temp+1)^0,w,c
  2140  0010BE  220F               	addwfc	(___flmul@grs+1)^0,f,c
  2141  0010C0  0E00               	movlw	0
  2142  0010C2  2210               	addwfc	(___flmul@grs+2)^0,f,c
  2143  0010C4  0E00               	movlw	0
  2144  0010C6  2211               	addwfc	(___flmul@grs+3)^0,f,c
  2145  0010C8  C010  F011         	movff	___flmul@grs+2,___flmul@grs+3
  2146  0010CC  C00F  F010         	movff	___flmul@grs+1,___flmul@grs+2
  2147  0010D0  C00E  F00F         	movff	___flmul@grs,___flmul@grs+1
  2148  0010D4  6A0E               	clrf	___flmul@grs^0,c
  2149  0010D6  5005               	movf	___flmul@a^0,w,c
  2150  0010D8  0201               	mulwf	___flmul@b^0,c
  2151  0010DA  CFF3 F018          	movff	prodl,___flmul@temp
  2152  0010DE  CFF4 F019          	movff	prodh,___flmul@temp+1
  2153  0010E2  5018               	movf	___flmul@temp^0,w,c
  2154  0010E4  260E               	addwf	___flmul@grs^0,f,c
  2155  0010E6  5019               	movf	(___flmul@temp+1)^0,w,c
  2156  0010E8  220F               	addwfc	(___flmul@grs+1)^0,f,c
  2157  0010EA  0E00               	movlw	0
  2158  0010EC  2210               	addwfc	(___flmul@grs+2)^0,f,c
  2159  0010EE  0E00               	movlw	0
  2160  0010F0  2211               	addwfc	(___flmul@grs+3)^0,f,c
  2161  0010F2  5007               	movf	(___flmul@a+2)^0,w,c
  2162  0010F4  0202               	mulwf	(___flmul@b+1)^0,c
  2163  0010F6  CFF3 F018          	movff	prodl,___flmul@temp
  2164  0010FA  CFF4 F019          	movff	prodh,___flmul@temp+1
  2165  0010FE  5018               	movf	___flmul@temp^0,w,c
  2166  001100  2614               	addwf	___flmul@prod^0,f,c
  2167  001102  5019               	movf	(___flmul@temp+1)^0,w,c
  2168  001104  2215               	addwfc	(___flmul@prod+1)^0,f,c
  2169  001106  0E00               	movlw	0
  2170  001108  2216               	addwfc	(___flmul@prod+2)^0,f,c
  2171  00110A  0E00               	movlw	0
  2172  00110C  2217               	addwfc	(___flmul@prod+3)^0,f,c
  2173  00110E  5006               	movf	(___flmul@a+1)^0,w,c
  2174  001110  0203               	mulwf	(___flmul@b+2)^0,c
  2175  001112  CFF3 F018          	movff	prodl,___flmul@temp
  2176  001116  CFF4 F019          	movff	prodh,___flmul@temp+1
  2177  00111A  5018               	movf	___flmul@temp^0,w,c
  2178  00111C  2614               	addwf	___flmul@prod^0,f,c
  2179  00111E  5019               	movf	(___flmul@temp+1)^0,w,c
  2180  001120  2215               	addwfc	(___flmul@prod+1)^0,f,c
  2181  001122  0E00               	movlw	0
  2182  001124  2216               	addwfc	(___flmul@prod+2)^0,f,c
  2183  001126  0E00               	movlw	0
  2184  001128  2217               	addwfc	(___flmul@prod+3)^0,f,c
  2185  00112A  5007               	movf	(___flmul@a+2)^0,w,c
  2186  00112C  0203               	mulwf	(___flmul@b+2)^0,c
  2187  00112E  CFF3 F018          	movff	prodl,___flmul@temp
  2188  001132  CFF4 F019          	movff	prodh,___flmul@temp+1
  2189  001136  5018               	movf	___flmul@temp^0,w,c
  2190  001138  6E09               	movwf	??___flmul^0,c
  2191  00113A  5019               	movf	(___flmul@temp+1)^0,w,c
  2192  00113C  6E0A               	movwf	(??___flmul+1)^0,c
  2193  00113E  6A0B               	clrf	(??___flmul+2)^0,c
  2194  001140  6A0C               	clrf	(??___flmul+3)^0,c
  2195  001142  C00B  F00C         	movff	??___flmul+2,??___flmul+3
  2196  001146  C00A  F00B         	movff	??___flmul+1,??___flmul+2
  2197  00114A  C009  F00A         	movff	??___flmul,??___flmul+1
  2198  00114E  6A09               	clrf	??___flmul^0,c
  2199  001150  5009               	movf	??___flmul^0,w,c
  2200  001152  2614               	addwf	___flmul@prod^0,f,c
  2201  001154  500A               	movf	(??___flmul+1)^0,w,c
  2202  001156  2215               	addwfc	(___flmul@prod+1)^0,f,c
  2203  001158  500B               	movf	(??___flmul+2)^0,w,c
  2204  00115A  2216               	addwfc	(___flmul@prod+2)^0,f,c
  2205  00115C  500C               	movf	(??___flmul+3)^0,w,c
  2206  00115E  2217               	addwfc	(___flmul@prod+3)^0,f,c
  2207  001160  C00E  F009         	movff	___flmul@grs,??___flmul
  2208  001164  C00F  F00A         	movff	___flmul@grs+1,??___flmul+1
  2209  001168  C010  F00B         	movff	___flmul@grs+2,??___flmul+2
  2210  00116C  C011  F00C         	movff	___flmul@grs+3,??___flmul+3
  2211  001170  0E19               	movlw	25
  2212  001172  EFC0  F008         	goto	u950
  2213  001176                     u955:
  2214  001176  90D8               	bcf	status,0,c
  2215  001178  320C               	rrcf	(??___flmul+3)^0,f,c
  2216  00117A  320B               	rrcf	(??___flmul+2)^0,f,c
  2217  00117C  320A               	rrcf	(??___flmul+1)^0,f,c
  2218  00117E  3209               	rrcf	??___flmul^0,f,c
  2219  001180                     u950:
  2220  001180  2EE8               	decfsz	wreg,f,c
  2221  001182  EFBB  F008         	goto	u955
  2222  001186  5009               	movf	??___flmul^0,w,c
  2223  001188  2614               	addwf	___flmul@prod^0,f,c
  2224  00118A  500A               	movf	(??___flmul+1)^0,w,c
  2225  00118C  2215               	addwfc	(___flmul@prod+1)^0,f,c
  2226  00118E  500B               	movf	(??___flmul+2)^0,w,c
  2227  001190  2216               	addwfc	(___flmul@prod+2)^0,f,c
  2228  001192  500C               	movf	(??___flmul+3)^0,w,c
  2229  001194  2217               	addwfc	(___flmul@prod+3)^0,f,c
  2230  001196  C010  F011         	movff	___flmul@grs+2,___flmul@grs+3
  2231  00119A  C00F  F010         	movff	___flmul@grs+1,___flmul@grs+2
  2232  00119E  C00E  F00F         	movff	___flmul@grs,___flmul@grs+1
  2233  0011A2  6A0E               	clrf	___flmul@grs^0,c
  2234  0011A4  5012               	movf	___flmul@aexp^0,w,c
  2235  0011A6  C013  F009         	movff	___flmul@bexp,??___flmul
  2236  0011AA  6A0A               	clrf	(??___flmul+1)^0,c
  2237  0011AC  2609               	addwf	??___flmul^0,f,c
  2238  0011AE  0E00               	movlw	0
  2239  0011B0  220A               	addwfc	(??___flmul+1)^0,f,c
  2240  0011B2  0E82               	movlw	130
  2241  0011B4  2409               	addwf	??___flmul^0,w,c
  2242  0011B6  6E18               	movwf	___flmul@temp^0,c
  2243  0011B8  0EFF               	movlw	255
  2244  0011BA  200A               	addwfc	(??___flmul+1)^0,w,c
  2245  0011BC  6E19               	movwf	(___flmul@temp+1)^0,c
  2246  0011BE  EFF6  F008         	goto	l3256
  2247  0011C2                     l3250:
  2248  0011C2  90D8               	bcf	status,0,c
  2249  0011C4  3614               	rlcf	___flmul@prod^0,f,c
  2250  0011C6  3615               	rlcf	(___flmul@prod+1)^0,f,c
  2251  0011C8  3616               	rlcf	(___flmul@prod+2)^0,f,c
  2252  0011CA  3617               	rlcf	(___flmul@prod+3)^0,f,c
  2253  0011CC  AE11               	btfss	(___flmul@grs+3)^0,7,c
  2254  0011CE  EFEB  F008         	goto	u961
  2255  0011D2  EFED  F008         	goto	u960
  2256  0011D6                     u961:
  2257  0011D6  EFEE  F008         	goto	l1648
  2258  0011DA                     u960:
  2259  0011DA  8014               	bsf	___flmul@prod^0,0,c
  2260  0011DC                     l1648:
  2261  0011DC  90D8               	bcf	status,0,c
  2262  0011DE  360E               	rlcf	___flmul@grs^0,f,c
  2263  0011E0  360F               	rlcf	(___flmul@grs+1)^0,f,c
  2264  0011E2  3610               	rlcf	(___flmul@grs+2)^0,f,c
  2265  0011E4  3611               	rlcf	(___flmul@grs+3)^0,f,c
  2266  0011E6  0618               	decf	___flmul@temp^0,f,c
  2267  0011E8  A0D8               	btfss	status,0,c
  2268  0011EA  0619               	decf	(___flmul@temp+1)^0,f,c
  2269  0011EC                     l3256:
  2270  0011EC  AE16               	btfss	(___flmul@prod+2)^0,7,c
  2271  0011EE  EFFB  F008         	goto	u971
  2272  0011F2  EFFD  F008         	goto	u970
  2273  0011F6                     u971:
  2274  0011F6  EFE1  F008         	goto	l3250
  2275  0011FA                     u970:
  2276  0011FA  0E00               	movlw	0
  2277  0011FC  6E12               	movwf	___flmul@aexp^0,c
  2278  0011FE  AE11               	btfss	(___flmul@grs+3)^0,7,c
  2279  001200  EF04  F009         	goto	u981
  2280  001204  EF06  F009         	goto	u980
  2281  001208                     u981:
  2282  001208  EF2A  F009         	goto	l1650
  2283  00120C                     u980:
  2284  00120C  0EFF               	movlw	255
  2285  00120E  140E               	andwf	___flmul@grs^0,w,c
  2286  001210  6E09               	movwf	??___flmul^0,c
  2287  001212  0EFF               	movlw	255
  2288  001214  140F               	andwf	(___flmul@grs+1)^0,w,c
  2289  001216  6E0A               	movwf	(??___flmul+1)^0,c
  2290  001218  0EFF               	movlw	255
  2291  00121A  1410               	andwf	(___flmul@grs+2)^0,w,c
  2292  00121C  6E0B               	movwf	(??___flmul+2)^0,c
  2293  00121E  0E7F               	movlw	127
  2294  001220  1411               	andwf	(___flmul@grs+3)^0,w,c
  2295  001222  6E0C               	movwf	(??___flmul+3)^0,c
  2296  001224  5009               	movf	??___flmul^0,w,c
  2297  001226  100A               	iorwf	(??___flmul+1)^0,w,c
  2298  001228  100B               	iorwf	(??___flmul+2)^0,w,c
  2299  00122A  100C               	iorwf	(??___flmul+3)^0,w,c
  2300  00122C  B4D8               	btfsc	status,2,c
  2301  00122E  EF1B  F009         	goto	u991
  2302  001232  EF1D  F009         	goto	u990
  2303  001236                     u991:
  2304  001236  EF21  F009         	goto	l1651
  2305  00123A                     u990:
  2306  00123A                     l3264:
  2307  00123A  0E01               	movlw	1
  2308  00123C  6E12               	movwf	___flmul@aexp^0,c
  2309  00123E  EF2A  F009         	goto	l1650
  2310  001242                     l1651:
  2311  001242  A014               	btfss	___flmul@prod^0,0,c
  2312  001244  EF26  F009         	goto	u1001
  2313  001248  EF28  F009         	goto	u1000
  2314  00124C                     u1001:
  2315  00124C  EF2A  F009         	goto	l1650
  2316  001250                     u1000:
  2317  001250  EF1D  F009         	goto	l3264
  2318  001254                     l1650:
  2319  001254  5012               	movf	___flmul@aexp^0,w,c
  2320  001256  B4D8               	btfsc	status,2,c
  2321  001258  EF30  F009         	goto	u1011
  2322  00125C  EF32  F009         	goto	u1010
  2323  001260                     u1011:
  2324  001260  EF56  F009         	goto	l3276
  2325  001264                     u1010:
  2326  001264  0E01               	movlw	1
  2327  001266  2614               	addwf	___flmul@prod^0,f,c
  2328  001268  0E00               	movlw	0
  2329  00126A  2215               	addwfc	(___flmul@prod+1)^0,f,c
  2330  00126C  2216               	addwfc	(___flmul@prod+2)^0,f,c
  2331  00126E  2217               	addwfc	(___flmul@prod+3)^0,f,c
  2332  001270  A017               	btfss	(___flmul@prod+3)^0,0,c
  2333  001272  EF3D  F009         	goto	u1021
  2334  001276  EF3F  F009         	goto	u1020
  2335  00127A                     u1021:
  2336  00127A  EF56  F009         	goto	l3276
  2337  00127E                     u1020:
  2338  00127E  C014  F009         	movff	___flmul@prod,??___flmul
  2339  001282  C015  F00A         	movff	___flmul@prod+1,??___flmul+1
  2340  001286  C016  F00B         	movff	___flmul@prod+2,??___flmul+2
  2341  00128A  C017  F00C         	movff	___flmul@prod+3,??___flmul+3
  2342  00128E  340C               	rlcf	(??___flmul+3)^0,w,c
  2343  001290  320C               	rrcf	(??___flmul+3)^0,f,c
  2344  001292  320B               	rrcf	(??___flmul+2)^0,f,c
  2345  001294  320A               	rrcf	(??___flmul+1)^0,f,c
  2346  001296  3209               	rrcf	??___flmul^0,f,c
  2347  001298  C009  F014         	movff	??___flmul,___flmul@prod
  2348  00129C  C00A  F015         	movff	??___flmul+1,___flmul@prod+1
  2349  0012A0  C00B  F016         	movff	??___flmul+2,___flmul@prod+2
  2350  0012A4  C00C  F017         	movff	??___flmul+3,___flmul@prod+3
  2351  0012A8  4A18               	infsnz	___flmul@temp^0,f,c
  2352  0012AA  2A19               	incf	(___flmul@temp+1)^0,f,c
  2353  0012AC                     l3276:
  2354  0012AC  BE19               	btfsc	(___flmul@temp+1)^0,7,c
  2355  0012AE  EF61  F009         	goto	u1031
  2356  0012B2  5019               	movf	(___flmul@temp+1)^0,w,c
  2357  0012B4  E108               	bnz	u1030
  2358  0012B6  2818               	incf	___flmul@temp^0,w,c
  2359  0012B8  A0D8               	btfss	status,0,c
  2360  0012BA  EF61  F009         	goto	u1031
  2361  0012BE  EF63  F009         	goto	u1030
  2362  0012C2                     u1031:
  2363  0012C2  EF6D  F009         	goto	l3280
  2364  0012C6                     u1030:
  2365  0012C6  0E00               	movlw	0
  2366  0012C8  6E14               	movwf	___flmul@prod^0,c
  2367  0012CA  0E00               	movlw	0
  2368  0012CC  6E15               	movwf	(___flmul@prod+1)^0,c
  2369  0012CE  0E80               	movlw	128
  2370  0012D0  6E16               	movwf	(___flmul@prod+2)^0,c
  2371  0012D2  0E7F               	movlw	127
  2372  0012D4  6E17               	movwf	(___flmul@prod+3)^0,c
  2373  0012D6  EF9B  F009         	goto	l3292
  2374  0012DA                     l3280:
  2375  0012DA  BE19               	btfsc	(___flmul@temp+1)^0,7,c
  2376  0012DC  EF7A  F009         	goto	u1040
  2377  0012E0  5019               	movf	(___flmul@temp+1)^0,w,c
  2378  0012E2  E106               	bnz	u1041
  2379  0012E4  0418               	decf	___flmul@temp^0,w,c
  2380  0012E6  B0D8               	btfsc	status,0,c
  2381  0012E8  EF78  F009         	goto	u1041
  2382  0012EC  EF7A  F009         	goto	u1040
  2383  0012F0                     u1041:
  2384  0012F0  EF86  F009         	goto	l1658
  2385  0012F4                     u1040:
  2386  0012F4  0E00               	movlw	0
  2387  0012F6  6E14               	movwf	___flmul@prod^0,c
  2388  0012F8  0E00               	movlw	0
  2389  0012FA  6E15               	movwf	(___flmul@prod+1)^0,c
  2390  0012FC  0E00               	movlw	0
  2391  0012FE  6E16               	movwf	(___flmul@prod+2)^0,c
  2392  001300  0E00               	movlw	0
  2393  001302  6E17               	movwf	(___flmul@prod+3)^0,c
  2394  001304  0E00               	movlw	0
  2395  001306  6E0D               	movwf	___flmul@sign^0,c
  2396  001308  EF9B  F009         	goto	l3292
  2397  00130C                     l1658:
  2398  00130C  C018  F013         	movff	___flmul@temp,___flmul@bexp
  2399  001310  0EFF               	movlw	255
  2400  001312  1614               	andwf	___flmul@prod^0,f,c
  2401  001314  0EFF               	movlw	255
  2402  001316  1615               	andwf	(___flmul@prod+1)^0,f,c
  2403  001318  0E7F               	movlw	127
  2404  00131A  1616               	andwf	(___flmul@prod+2)^0,f,c
  2405  00131C  0E00               	movlw	0
  2406  00131E  1617               	andwf	(___flmul@prod+3)^0,f,c
  2407  001320  A013               	btfss	___flmul@bexp^0,0,c
  2408  001322  EF95  F009         	goto	u1051
  2409  001326  EF97  F009         	goto	u1050
  2410  00132A                     u1051:
  2411  00132A  EF98  F009         	goto	l3290
  2412  00132E                     u1050:
  2413  00132E  8E16               	bsf	(___flmul@prod+2)^0,7,c
  2414  001330                     l3290:
  2415  001330  90D8               	bcf	status,0,c
  2416  001332  3013               	rrcf	___flmul@bexp^0,w,c
  2417  001334  6E17               	movwf	(___flmul@prod+3)^0,c
  2418  001336                     l3292:
  2419  001336  500D               	movf	___flmul@sign^0,w,c
  2420  001338  1217               	iorwf	(___flmul@prod+3)^0,f,c
  2421  00133A  C014  F001         	movff	___flmul@prod,?___flmul
  2422  00133E  C015  F002         	movff	___flmul@prod+1,?___flmul+1
  2423  001342  C016  F003         	movff	___flmul@prod+2,?___flmul+2
  2424  001346  C017  F004         	movff	___flmul@prod+3,?___flmul+3
  2425  00134A                     l1645:
  2426  00134A  0012               	return		;funcret
  2427  00134C                     __end_of___flmul:
  2428                           	callstack 0
  2429                           
  2430 ;; *************** function ___flge *****************
  2431 ;; Defined at:
  2432 ;;		line 4 in file "C:\Program Files\Microchip\xc8\v2.32\pic\sources\c99\common\flge.c"
  2433 ;; Parameters:    Size  Location     Type
  2434 ;;  ff1             4    0[COMRAM] unsigned char 
  2435 ;;  ff2             4    4[COMRAM] unsigned char 
  2436 ;; Auto vars:     Size  Location     Type
  2437 ;;		None
  2438 ;; Return value:  Size  Location     Type
  2439 ;;		None               void
  2440 ;; Registers used:
  2441 ;;		wreg, status,2, status,0
  2442 ;; Tracked objects:
  2443 ;;		On entry : 0/0
  2444 ;;		On exit  : 0/0
  2445 ;;		Unchanged: 0/0
  2446 ;; Data sizes:     COMRAM   BANK0   BANK1   BANK2   BANK3   BANK4   BANK5   BANK6   BANK7   BANK8   BANK9  BANK10  BANK1
      +1  BANK12  BANK13  BANK14
  2447 ;;      Params:         8       0       0       0       0       0       0       0       0       0       0       0       
      +0       0       0       0
  2448 ;;      Locals:         0       0       0       0       0       0       0       0       0       0       0       0       
      +0       0       0       0
  2449 ;;      Temps:          4       0       0       0       0       0       0       0       0       0       0       0       
      +0       0       0       0
  2450 ;;      Totals:        12       0       0       0       0       0       0       0       0       0       0       0       
      +0       0       0       0
  2451 ;;Total ram usage:       12 bytes
  2452 ;; Hardware stack levels used: 1
  2453 ;; This function calls:
  2454 ;;		Nothing
  2455 ;; This function is called by:
  2456 ;;		_main
  2457 ;; This function uses a non-reentrant model
  2458 ;;
  2459                           
  2460                           	psect	text6
  2461  001BE0                     __ptext6:
  2462                           	callstack 0
  2463  001BE0                     ___flge:
  2464                           	callstack 30
  2465  001BE0  0E00               	movlw	0
  2466  001BE2  1401               	andwf	___flge@ff1^0,w,c
  2467  001BE4  6E09               	movwf	??___flge^0,c
  2468  001BE6  0E00               	movlw	0
  2469  001BE8  1402               	andwf	(___flge@ff1+1)^0,w,c
  2470  001BEA  6E0A               	movwf	(??___flge+1)^0,c
  2471  001BEC  0E80               	movlw	128
  2472  001BEE  1403               	andwf	(___flge@ff1+2)^0,w,c
  2473  001BF0  6E0B               	movwf	(??___flge+2)^0,c
  2474  001BF2  0E7F               	movlw	127
  2475  001BF4  1404               	andwf	(___flge@ff1+3)^0,w,c
  2476  001BF6  6E0C               	movwf	(??___flge+3)^0,c
  2477  001BF8  5009               	movf	??___flge^0,w,c
  2478  001BFA  100A               	iorwf	(??___flge+1)^0,w,c
  2479  001BFC  100B               	iorwf	(??___flge+2)^0,w,c
  2480  001BFE  100C               	iorwf	(??___flge+3)^0,w,c
  2481  001C00  A4D8               	btfss	status,2,c
  2482  001C02  EF05  F00E         	goto	u1061
  2483  001C06  EF07  F00E         	goto	u1060
  2484  001C0A                     u1061:
  2485  001C0A  EF0F  F00E         	goto	l3302
  2486  001C0E                     u1060:
  2487  001C0E  0E00               	movlw	0
  2488  001C10  6E01               	movwf	___flge@ff1^0,c
  2489  001C12  0E00               	movlw	0
  2490  001C14  6E02               	movwf	(___flge@ff1+1)^0,c
  2491  001C16  0E00               	movlw	0
  2492  001C18  6E03               	movwf	(___flge@ff1+2)^0,c
  2493  001C1A  0E00               	movlw	0
  2494  001C1C  6E04               	movwf	(___flge@ff1+3)^0,c
  2495  001C1E                     l3302:
  2496  001C1E  0E00               	movlw	0
  2497  001C20  1405               	andwf	___flge@ff2^0,w,c
  2498  001C22  6E09               	movwf	??___flge^0,c
  2499  001C24  0E00               	movlw	0
  2500  001C26  1406               	andwf	(___flge@ff2+1)^0,w,c
  2501  001C28  6E0A               	movwf	(??___flge+1)^0,c
  2502  001C2A  0E80               	movlw	128
  2503  001C2C  1407               	andwf	(___flge@ff2+2)^0,w,c
  2504  001C2E  6E0B               	movwf	(??___flge+2)^0,c
  2505  001C30  0E7F               	movlw	127
  2506  001C32  1408               	andwf	(___flge@ff2+3)^0,w,c
  2507  001C34  6E0C               	movwf	(??___flge+3)^0,c
  2508  001C36  5009               	movf	??___flge^0,w,c
  2509  001C38  100A               	iorwf	(??___flge+1)^0,w,c
  2510  001C3A  100B               	iorwf	(??___flge+2)^0,w,c
  2511  001C3C  100C               	iorwf	(??___flge+3)^0,w,c
  2512  001C3E  A4D8               	btfss	status,2,c
  2513  001C40  EF24  F00E         	goto	u1071
  2514  001C44  EF26  F00E         	goto	u1070
  2515  001C48                     u1071:
  2516  001C48  EF2E  F00E         	goto	l3306
  2517  001C4C                     u1070:
  2518  001C4C  0E00               	movlw	0
  2519  001C4E  6E05               	movwf	___flge@ff2^0,c
  2520  001C50  0E00               	movlw	0
  2521  001C52  6E06               	movwf	(___flge@ff2+1)^0,c
  2522  001C54  0E00               	movlw	0
  2523  001C56  6E07               	movwf	(___flge@ff2+2)^0,c
  2524  001C58  0E00               	movlw	0
  2525  001C5A  6E08               	movwf	(___flge@ff2+3)^0,c
  2526  001C5C                     l3306:
  2527  001C5C  AE04               	btfss	(___flge@ff1+3)^0,7,c
  2528  001C5E  EF33  F00E         	goto	u1081
  2529  001C62  EF35  F00E         	goto	u1080
  2530  001C66                     u1081:
  2531  001C66  EF3E  F00E         	goto	l3310
  2532  001C6A                     u1080:
  2533  001C6A  6C01               	negf	___flge@ff1^0,c
  2534  001C6C  1E02               	comf	(___flge@ff1+1)^0,f,c
  2535  001C6E  B0D8               	btfsc	status,0,c
  2536  001C70  2A02               	incf	(___flge@ff1+1)^0,f,c
  2537  001C72  1E03               	comf	(___flge@ff1+2)^0,f,c
  2538  001C74  B0D8               	btfsc	status,0,c
  2539  001C76  2A03               	incf	(___flge@ff1+2)^0,f,c
  2540  001C78  0E80               	movlw	128
  2541  001C7A  5604               	subfwb	(___flge@ff1+3)^0,f,c
  2542  001C7C                     l3310:
  2543  001C7C  AE08               	btfss	(___flge@ff2+3)^0,7,c
  2544  001C7E  EF43  F00E         	goto	u1091
  2545  001C82  EF45  F00E         	goto	u1090
  2546  001C86                     u1091:
  2547  001C86  EF4E  F00E         	goto	l1292
  2548  001C8A                     u1090:
  2549  001C8A  6C05               	negf	___flge@ff2^0,c
  2550  001C8C  1E06               	comf	(___flge@ff2+1)^0,f,c
  2551  001C8E  B0D8               	btfsc	status,0,c
  2552  001C90  2A06               	incf	(___flge@ff2+1)^0,f,c
  2553  001C92  1E07               	comf	(___flge@ff2+2)^0,f,c
  2554  001C94  B0D8               	btfsc	status,0,c
  2555  001C96  2A07               	incf	(___flge@ff2+2)^0,f,c
  2556  001C98  0E80               	movlw	128
  2557  001C9A  5608               	subfwb	(___flge@ff2+3)^0,f,c
  2558  001C9C                     l1292:
  2559  001C9C  0E00               	movlw	0
  2560  001C9E  1A01               	xorwf	___flge@ff1^0,f,c
  2561  001CA0  0E00               	movlw	0
  2562  001CA2  1A02               	xorwf	(___flge@ff1+1)^0,f,c
  2563  001CA4  0E00               	movlw	0
  2564  001CA6  1A03               	xorwf	(___flge@ff1+2)^0,f,c
  2565  001CA8  0E80               	movlw	128
  2566  001CAA  1A04               	xorwf	(___flge@ff1+3)^0,f,c
  2567  001CAC  0E00               	movlw	0
  2568  001CAE  1A05               	xorwf	___flge@ff2^0,f,c
  2569  001CB0  0E00               	movlw	0
  2570  001CB2  1A06               	xorwf	(___flge@ff2+1)^0,f,c
  2571  001CB4  0E00               	movlw	0
  2572  001CB6  1A07               	xorwf	(___flge@ff2+2)^0,f,c
  2573  001CB8  0E80               	movlw	128
  2574  001CBA  1A08               	xorwf	(___flge@ff2+3)^0,f,c
  2575  001CBC  5005               	movf	___flge@ff2^0,w,c
  2576  001CBE  5C01               	subwf	___flge@ff1^0,w,c
  2577  001CC0  5006               	movf	(___flge@ff2+1)^0,w,c
  2578  001CC2  5802               	subwfb	(___flge@ff1+1)^0,w,c
  2579  001CC4  5007               	movf	(___flge@ff2+2)^0,w,c
  2580  001CC6  5803               	subwfb	(___flge@ff1+2)^0,w,c
  2581  001CC8  5008               	movf	(___flge@ff2+3)^0,w,c
  2582  001CCA  5804               	subwfb	(___flge@ff1+3)^0,w,c
  2583  001CCC  B0D8               	btfsc	status,0,c
  2584  001CCE  EF6B  F00E         	goto	u1101
  2585  001CD2  EF6D  F00E         	goto	u1100
  2586  001CD6                     u1101:
  2587  001CD6  EF70  F00E         	goto	l3316
  2588  001CDA                     u1100:
  2589  001CDA  90D8               	bcf	status,0,c
  2590  001CDC  EF71  F00E         	goto	l1297
  2591  001CE0                     l3316:
  2592  001CE0  80D8               	bsf	status,0,c
  2593  001CE2                     l1297:
  2594  001CE2  0012               	return		;funcret
  2595  001CE4                     __end_of___flge:
  2596                           	callstack 0
  2597                           
  2598 ;; *************** function _SYSTEM_Initialize *****************
  2599 ;; Defined at:
  2600 ;;		line 50 in file "mcc_generated_files/mcc.c"
  2601 ;; Parameters:    Size  Location     Type
  2602 ;;		None
  2603 ;; Auto vars:     Size  Location     Type
  2604 ;;		None
  2605 ;; Return value:  Size  Location     Type
  2606 ;;                  1    wreg      void 
  2607 ;; Registers used:
  2608 ;;		wreg, status,2, status,0, cstack
  2609 ;; Tracked objects:
  2610 ;;		On entry : 0/0
  2611 ;;		On exit  : 0/0
  2612 ;;		Unchanged: 0/0
  2613 ;; Data sizes:     COMRAM   BANK0   BANK1   BANK2   BANK3   BANK4   BANK5   BANK6   BANK7   BANK8   BANK9  BANK10  BANK1
      +1  BANK12  BANK13  BANK14
  2614 ;;      Params:         0       0       0       0       0       0       0       0       0       0       0       0       
      +0       0       0       0
  2615 ;;      Locals:         0       0       0       0       0       0       0       0       0       0       0       0       
      +0       0       0       0
  2616 ;;      Temps:          0       0       0       0       0       0       0       0       0       0       0       0       
      +0       0       0       0
  2617 ;;      Totals:         0       0       0       0       0       0       0       0       0       0       0       0       
      +0       0       0       0
  2618 ;;Total ram usage:        0 bytes
  2619 ;; Hardware stack levels used: 1
  2620 ;; Hardware stack levels required when called: 2
  2621 ;; This function calls:
  2622 ;;		_ADCC_Initialize
  2623 ;;		_EUSART1_Initialize
  2624 ;;		_I2C1_Initialize
  2625 ;;		_OSCILLATOR_Initialize
  2626 ;;		_PIN_MANAGER_Initialize
  2627 ;;		_PMD_Initialize
  2628 ;; This function is called by:
  2629 ;;		_main
  2630 ;; This function uses a non-reentrant model
  2631 ;;
  2632                           
  2633                           	psect	text7
  2634  001E60                     __ptext7:
  2635                           	callstack 0
  2636  001E60                     _SYSTEM_Initialize:
  2637                           	callstack 28
  2638  001E60                     
  2639                           ;mcc_generated_files/mcc.c: 52:     PMD_Initialize();
  2640  001E60  EC22  F00F         	call	_PMD_Initialize	;wreg free
  2641                           
  2642                           ;mcc_generated_files/mcc.c: 53:     I2C1_Initialize();
  2643  001E64  EC49  F00F         	call	_I2C1_Initialize	;wreg free
  2644                           
  2645                           ;mcc_generated_files/mcc.c: 54:     PIN_MANAGER_Initialize();
  2646  001E68  EC72  F00E         	call	_PIN_MANAGER_Initialize	;wreg free
  2647                           
  2648                           ;mcc_generated_files/mcc.c: 55:     OSCILLATOR_Initialize();
  2649  001E6C  EC3D  F00F         	call	_OSCILLATOR_Initialize	;wreg free
  2650                           
  2651                           ;mcc_generated_files/mcc.c: 56:     ADCC_Initialize();
  2652  001E70  ECA9  F00E         	call	_ADCC_Initialize	;wreg free
  2653  001E74                     
  2654                           ;mcc_generated_files/mcc.c: 57:     EUSART1_Initialize();
  2655  001E74  ECD1  F00E         	call	_EUSART1_Initialize	;wreg free
  2656  001E78  0012               	return		;funcret
  2657  001E7A                     __end_of_SYSTEM_Initialize:
  2658                           	callstack 0
  2659                           
  2660 ;; *************** function _PMD_Initialize *****************
  2661 ;; Defined at:
  2662 ;;		line 74 in file "mcc_generated_files/mcc.c"
  2663 ;; Parameters:    Size  Location     Type
  2664 ;;		None
  2665 ;; Auto vars:     Size  Location     Type
  2666 ;;		None
  2667 ;; Return value:  Size  Location     Type
  2668 ;;                  1    wreg      void 
  2669 ;; Registers used:
  2670 ;;		wreg, status,2
  2671 ;; Tracked objects:
  2672 ;;		On entry : 0/0
  2673 ;;		On exit  : 0/0
  2674 ;;		Unchanged: 0/0
  2675 ;; Data sizes:     COMRAM   BANK0   BANK1   BANK2   BANK3   BANK4   BANK5   BANK6   BANK7   BANK8   BANK9  BANK10  BANK1
      +1  BANK12  BANK13  BANK14
  2676 ;;      Params:         0       0       0       0       0       0       0       0       0       0       0       0       
      +0       0       0       0
  2677 ;;      Locals:         0       0       0       0       0       0       0       0       0       0       0       0       
      +0       0       0       0
  2678 ;;      Temps:          0       0       0       0       0       0       0       0       0       0       0       0       
      +0       0       0       0
  2679 ;;      Totals:         0       0       0       0       0       0       0       0       0       0       0       0       
      +0       0       0       0
  2680 ;;Total ram usage:        0 bytes
  2681 ;; Hardware stack levels used: 1
  2682 ;; This function calls:
  2683 ;;		Nothing
  2684 ;; This function is called by:
  2685 ;;		_SYSTEM_Initialize
  2686 ;; This function uses a non-reentrant model
  2687 ;;
  2688                           
  2689                           	psect	text8
  2690  001E44                     __ptext8:
  2691                           	callstack 0
  2692  001E44                     _PMD_Initialize:
  2693                           	callstack 29
  2694  001E44                     
  2695                           ;mcc_generated_files/mcc.c: 77:     PMD0 = 0x00;
  2696  001E44  0E00               	movlw	0
  2697  001E46  010E               	movlb	14	; () banked
  2698  001E48  6FE1               	movwf	225,b	;volatile
  2699                           
  2700                           ;mcc_generated_files/mcc.c: 79:     PMD1 = 0x00;
  2701  001E4A  0E00               	movlw	0
  2702  001E4C  6FE2               	movwf	226,b	;volatile
  2703                           
  2704                           ;mcc_generated_files/mcc.c: 81:     PMD2 = 0x00;
  2705  001E4E  0E00               	movlw	0
  2706  001E50  6FE3               	movwf	227,b	;volatile
  2707                           
  2708                           ;mcc_generated_files/mcc.c: 83:     PMD3 = 0x00;
  2709  001E52  0E00               	movlw	0
  2710  001E54  6FE4               	movwf	228,b	;volatile
  2711                           
  2712                           ;mcc_generated_files/mcc.c: 85:     PMD4 = 0x00;
  2713  001E56  0E00               	movlw	0
  2714  001E58  6FE5               	movwf	229,b	;volatile
  2715                           
  2716                           ;mcc_generated_files/mcc.c: 87:     PMD5 = 0x00;
  2717  001E5A  0E00               	movlw	0
  2718  001E5C  6FE6               	movwf	230,b	;volatile
  2719  001E5E                     
  2720                           ; BSR set to: 14
  2721  001E5E  0012               	return		;funcret
  2722  001E60                     __end_of_PMD_Initialize:
  2723                           	callstack 0
  2724                           
  2725 ;; *************** function _PIN_MANAGER_Initialize *****************
  2726 ;; Defined at:
  2727 ;;		line 55 in file "mcc_generated_files/pin_manager.c"
  2728 ;; Parameters:    Size  Location     Type
  2729 ;;		None
  2730 ;; Auto vars:     Size  Location     Type
  2731 ;;		None
  2732 ;; Return value:  Size  Location     Type
  2733 ;;                  1    wreg      void 
  2734 ;; Registers used:
  2735 ;;		wreg, status,2
  2736 ;; Tracked objects:
  2737 ;;		On entry : 0/0
  2738 ;;		On exit  : 0/0
  2739 ;;		Unchanged: 0/0
  2740 ;; Data sizes:     COMRAM   BANK0   BANK1   BANK2   BANK3   BANK4   BANK5   BANK6   BANK7   BANK8   BANK9  BANK10  BANK1
      +1  BANK12  BANK13  BANK14
  2741 ;;      Params:         0       0       0       0       0       0       0       0       0       0       0       0       
      +0       0       0       0
  2742 ;;      Locals:         0       0       0       0       0       0       0       0       0       0       0       0       
      +0       0       0       0
  2743 ;;      Temps:          0       0       0       0       0       0       0       0       0       0       0       0       
      +0       0       0       0
  2744 ;;      Totals:         0       0       0       0       0       0       0       0       0       0       0       0       
      +0       0       0       0
  2745 ;;Total ram usage:        0 bytes
  2746 ;; Hardware stack levels used: 1
  2747 ;; This function calls:
  2748 ;;		Nothing
  2749 ;; This function is called by:
  2750 ;;		_SYSTEM_Initialize
  2751 ;; This function uses a non-reentrant model
  2752 ;;
  2753                           
  2754                           	psect	text9
  2755  001CE4                     __ptext9:
  2756                           	callstack 0
  2757  001CE4                     _PIN_MANAGER_Initialize:
  2758                           	callstack 29
  2759  001CE4                     
  2760                           ;mcc_generated_files/pin_manager.c: 60:     LATA = 0x00;
  2761  001CE4  0E00               	movlw	0
  2762  001CE6  6E83               	movwf	131,c	;volatile
  2763                           
  2764                           ;mcc_generated_files/pin_manager.c: 61:     LATB = 0x00;
  2765  001CE8  0E00               	movlw	0
  2766  001CEA  6E84               	movwf	132,c	;volatile
  2767                           
  2768                           ;mcc_generated_files/pin_manager.c: 62:     LATC = 0x00;
  2769  001CEC  0E00               	movlw	0
  2770  001CEE  6E85               	movwf	133,c	;volatile
  2771                           
  2772                           ;mcc_generated_files/pin_manager.c: 67:     TRISA = 0xC9;
  2773  001CF0  0EC9               	movlw	201
  2774  001CF2  6E88               	movwf	136,c	;volatile
  2775                           
  2776                           ;mcc_generated_files/pin_manager.c: 68:     TRISB = 0xC0;
  2777  001CF4  0EC0               	movlw	192
  2778  001CF6  6E89               	movwf	137,c	;volatile
  2779                           
  2780                           ;mcc_generated_files/pin_manager.c: 69:     TRISC = 0xBF;
  2781  001CF8  0EBF               	movlw	191
  2782  001CFA  6E8A               	movwf	138,c	;volatile
  2783                           
  2784                           ;mcc_generated_files/pin_manager.c: 74:     ANSELC = 0x63;
  2785  001CFC  0E63               	movlw	99
  2786  001CFE  010F               	movlb	15	; () banked
  2787  001D00  6F21               	movwf	33,b	;volatile
  2788                           
  2789                           ;mcc_generated_files/pin_manager.c: 75:     ANSELB = 0xC0;
  2790  001D02  0EC0               	movlw	192
  2791  001D04  6F19               	movwf	25,b	;volatile
  2792                           
  2793                           ;mcc_generated_files/pin_manager.c: 76:     ANSELA = 0x41;
  2794  001D06  0E41               	movlw	65
  2795  001D08  6F11               	movwf	17,b	;volatile
  2796                           
  2797                           ;mcc_generated_files/pin_manager.c: 81:     WPUE = 0x00;
  2798  001D0A  0E00               	movlw	0
  2799  001D0C  6F2D               	movwf	45,b	;volatile
  2800                           
  2801                           ;mcc_generated_files/pin_manager.c: 82:     WPUB = 0x00;
  2802  001D0E  0E00               	movlw	0
  2803  001D10  6F18               	movwf	24,b	;volatile
  2804                           
  2805                           ;mcc_generated_files/pin_manager.c: 83:     WPUA = 0x00;
  2806  001D12  0E00               	movlw	0
  2807  001D14  6F10               	movwf	16,b	;volatile
  2808                           
  2809                           ;mcc_generated_files/pin_manager.c: 84:     WPUC = 0x00;
  2810  001D16  0E00               	movlw	0
  2811  001D18  6F20               	movwf	32,b	;volatile
  2812                           
  2813                           ;mcc_generated_files/pin_manager.c: 89:     ODCONA = 0x00;
  2814  001D1A  0E00               	movlw	0
  2815  001D1C  6F0F               	movwf	15,b	;volatile
  2816                           
  2817                           ;mcc_generated_files/pin_manager.c: 90:     ODCONB = 0x00;
  2818  001D1E  0E00               	movlw	0
  2819  001D20  6F17               	movwf	23,b	;volatile
  2820                           
  2821                           ;mcc_generated_files/pin_manager.c: 91:     ODCONC = 0x00;
  2822  001D22  0E00               	movlw	0
  2823  001D24  6F1F               	movwf	31,b	;volatile
  2824  001D26                     
  2825                           ; BSR set to: 15
  2826                           ;mcc_generated_files/pin_manager.c: 96:     SLRCONA = 0xFF;
  2827  001D26  690E               	setf	14,b	;volatile
  2828  001D28                     
  2829                           ; BSR set to: 15
  2830                           ;mcc_generated_files/pin_manager.c: 97:     SLRCONB = 0xFF;
  2831  001D28  6916               	setf	22,b	;volatile
  2832  001D2A                     
  2833                           ; BSR set to: 15
  2834                           ;mcc_generated_files/pin_manager.c: 98:     SLRCONC = 0xFF;
  2835  001D2A  691E               	setf	30,b	;volatile
  2836  001D2C                     
  2837                           ; BSR set to: 15
  2838                           ;mcc_generated_files/pin_manager.c: 103:     INLVLA = 0xFF;
  2839  001D2C  690D               	setf	13,b	;volatile
  2840  001D2E                     
  2841                           ; BSR set to: 15
  2842                           ;mcc_generated_files/pin_manager.c: 104:     INLVLB = 0xFF;
  2843  001D2E  6915               	setf	21,b	;volatile
  2844  001D30                     
  2845                           ; BSR set to: 15
  2846                           ;mcc_generated_files/pin_manager.c: 105:     INLVLC = 0xFF;
  2847  001D30  691D               	setf	29,b	;volatile
  2848                           
  2849                           ;mcc_generated_files/pin_manager.c: 106:     INLVLE = 0x08;
  2850  001D32  0E08               	movlw	8
  2851  001D34  6F2A               	movwf	42,b	;volatile
  2852                           
  2853                           ;mcc_generated_files/pin_manager.c: 115:     SSP1CLKPPS = 0x13;
  2854  001D36  0E13               	movlw	19
  2855  001D38  010E               	movlb	14	; () banked
  2856  001D3A  6FB7               	movwf	183,b	;volatile
  2857                           
  2858                           ;mcc_generated_files/pin_manager.c: 116:     RX1PPS = 0x17;
  2859  001D3C  0E17               	movlw	23
  2860  001D3E  6FB5               	movwf	181,b	;volatile
  2861                           
  2862                           ;mcc_generated_files/pin_manager.c: 117:     RC3PPS = 0x0F;
  2863  001D40  0E0F               	movlw	15
  2864  001D42  6FFA               	movwf	250,b	;volatile
  2865                           
  2866                           ;mcc_generated_files/pin_manager.c: 118:     RC2PPS = 0x10;
  2867  001D44  0E10               	movlw	16
  2868  001D46  6FF9               	movwf	249,b	;volatile
  2869                           
  2870                           ;mcc_generated_files/pin_manager.c: 119:     RC6PPS = 0x09;
  2871  001D48  0E09               	movlw	9
  2872  001D4A  6FFD               	movwf	253,b	;volatile
  2873                           
  2874                           ;mcc_generated_files/pin_manager.c: 120:     SSP1DATPPS = 0x12;
  2875  001D4C  0E12               	movlw	18
  2876  001D4E  6FB8               	movwf	184,b	;volatile
  2877  001D50                     
  2878                           ; BSR set to: 14
  2879  001D50  0012               	return		;funcret
  2880  001D52                     __end_of_PIN_MANAGER_Initialize:
  2881                           	callstack 0
  2882                           
  2883 ;; *************** function _OSCILLATOR_Initialize *****************
  2884 ;; Defined at:
  2885 ;;		line 60 in file "mcc_generated_files/mcc.c"
  2886 ;; Parameters:    Size  Location     Type
  2887 ;;		None
  2888 ;; Auto vars:     Size  Location     Type
  2889 ;;		None
  2890 ;; Return value:  Size  Location     Type
  2891 ;;                  1    wreg      void 
  2892 ;; Registers used:
  2893 ;;		wreg, status,2
  2894 ;; Tracked objects:
  2895 ;;		On entry : 0/0
  2896 ;;		On exit  : 0/0
  2897 ;;		Unchanged: 0/0
  2898 ;; Data sizes:     COMRAM   BANK0   BANK1   BANK2   BANK3   BANK4   BANK5   BANK6   BANK7   BANK8   BANK9  BANK10  BANK1
      +1  BANK12  BANK13  BANK14
  2899 ;;      Params:         0       0       0       0       0       0       0       0       0       0       0       0       
      +0       0       0       0
  2900 ;;      Locals:         0       0       0       0       0       0       0       0       0       0       0       0       
      +0       0       0       0
  2901 ;;      Temps:          0       0       0       0       0       0       0       0       0       0       0       0       
      +0       0       0       0
  2902 ;;      Totals:         0       0       0       0       0       0       0       0       0       0       0       0       
      +0       0       0       0
  2903 ;;Total ram usage:        0 bytes
  2904 ;; Hardware stack levels used: 1
  2905 ;; This function calls:
  2906 ;;		Nothing
  2907 ;; This function is called by:
  2908 ;;		_SYSTEM_Initialize
  2909 ;; This function uses a non-reentrant model
  2910 ;;
  2911                           
  2912                           	psect	text10
  2913  001E7A                     __ptext10:
  2914                           	callstack 0
  2915  001E7A                     _OSCILLATOR_Initialize:
  2916                           	callstack 29
  2917  001E7A                     
  2918                           ;mcc_generated_files/mcc.c: 63:     OSCCON1 = 0x60;
  2919  001E7A  0E60               	movlw	96
  2920  001E7C  010E               	movlb	14	; () banked
  2921  001E7E  6FD8               	movwf	216,b	;volatile
  2922                           
  2923                           ;mcc_generated_files/mcc.c: 65:     OSCCON3 = 0x00;
  2924  001E80  0E00               	movlw	0
  2925  001E82  6FDA               	movwf	218,b	;volatile
  2926                           
  2927                           ;mcc_generated_files/mcc.c: 67:     OSCEN = 0x00;
  2928  001E84  0E00               	movlw	0
  2929  001E86  6FDC               	movwf	220,b	;volatile
  2930                           
  2931                           ;mcc_generated_files/mcc.c: 69:     OSCFRQ = 0x08;
  2932  001E88  0E08               	movlw	8
  2933  001E8A  6FDE               	movwf	222,b	;volatile
  2934                           
  2935                           ;mcc_generated_files/mcc.c: 71:     OSCTUNE = 0x00;
  2936  001E8C  0E00               	movlw	0
  2937  001E8E  6FDD               	movwf	221,b	;volatile
  2938  001E90                     
  2939                           ; BSR set to: 14
  2940  001E90  0012               	return		;funcret
  2941  001E92                     __end_of_OSCILLATOR_Initialize:
  2942                           	callstack 0
  2943                           
  2944 ;; *************** function _I2C1_Initialize *****************
  2945 ;; Defined at:
  2946 ;;		line 167 in file "mcc_generated_files/i2c1_master.c"
  2947 ;; Parameters:    Size  Location     Type
  2948 ;;		None
  2949 ;; Auto vars:     Size  Location     Type
  2950 ;;		None
  2951 ;; Return value:  Size  Location     Type
  2952 ;;                  1    wreg      void 
  2953 ;; Registers used:
  2954 ;;		wreg, status,2
  2955 ;; Tracked objects:
  2956 ;;		On entry : 0/0
  2957 ;;		On exit  : 0/0
  2958 ;;		Unchanged: 0/0
  2959 ;; Data sizes:     COMRAM   BANK0   BANK1   BANK2   BANK3   BANK4   BANK5   BANK6   BANK7   BANK8   BANK9  BANK10  BANK1
      +1  BANK12  BANK13  BANK14
  2960 ;;      Params:         0       0       0       0       0       0       0       0       0       0       0       0       
      +0       0       0       0
  2961 ;;      Locals:         0       0       0       0       0       0       0       0       0       0       0       0       
      +0       0       0       0
  2962 ;;      Temps:          0       0       0       0       0       0       0       0       0       0       0       0       
      +0       0       0       0
  2963 ;;      Totals:         0       0       0       0       0       0       0       0       0       0       0       0       
      +0       0       0       0
  2964 ;;Total ram usage:        0 bytes
  2965 ;; Hardware stack levels used: 1
  2966 ;; This function calls:
  2967 ;;		Nothing
  2968 ;; This function is called by:
  2969 ;;		_SYSTEM_Initialize
  2970 ;; This function uses a non-reentrant model
  2971 ;;
  2972                           
  2973                           	psect	text11
  2974  001E92                     __ptext11:
  2975                           	callstack 0
  2976  001E92                     _I2C1_Initialize:
  2977                           	callstack 29
  2978  001E92                     
  2979                           ;mcc_generated_files/i2c1_master.c: 169:     SSP1STAT = 0x00;
  2980  001E92  0E00               	movlw	0
  2981  001E94  6E95               	movwf	149,c	;volatile
  2982                           
  2983                           ;mcc_generated_files/i2c1_master.c: 170:     SSP1CON1 = 0x08;
  2984  001E96  0E08               	movlw	8
  2985  001E98  6E96               	movwf	150,c	;volatile
  2986                           
  2987                           ;mcc_generated_files/i2c1_master.c: 171:     SSP1CON2 = 0x00;
  2988  001E9A  0E00               	movlw	0
  2989  001E9C  6E97               	movwf	151,c	;volatile
  2990                           
  2991                           ;mcc_generated_files/i2c1_master.c: 172:     SSP1ADD = 0x9F;
  2992  001E9E  0E9F               	movlw	159
  2993  001EA0  6E93               	movwf	147,c	;volatile
  2994  001EA2                     
  2995                           ;mcc_generated_files/i2c1_master.c: 173:     SSP1CON1bits.SSPEN = 0;
  2996  001EA2  9A96               	bcf	150,5,c	;volatile
  2997  001EA4  0012               	return		;funcret
  2998  001EA6                     __end_of_I2C1_Initialize:
  2999                           	callstack 0
  3000                           
  3001 ;; *************** function _EUSART1_Initialize *****************
  3002 ;; Defined at:
  3003 ;;		line 66 in file "mcc_generated_files/eusart1.c"
  3004 ;; Parameters:    Size  Location     Type
  3005 ;;		None
  3006 ;; Auto vars:     Size  Location     Type
  3007 ;;		None
  3008 ;; Return value:  Size  Location     Type
  3009 ;;                  1    wreg      void 
  3010 ;; Registers used:
  3011 ;;		wreg, status,2, status,0, cstack
  3012 ;; Tracked objects:
  3013 ;;		On entry : 0/0
  3014 ;;		On exit  : 0/0
  3015 ;;		Unchanged: 0/0
  3016 ;; Data sizes:     COMRAM   BANK0   BANK1   BANK2   BANK3   BANK4   BANK5   BANK6   BANK7   BANK8   BANK9  BANK10  BANK1
      +1  BANK12  BANK13  BANK14
  3017 ;;      Params:         0       0       0       0       0       0       0       0       0       0       0       0       
      +0       0       0       0
  3018 ;;      Locals:         0       0       0       0       0       0       0       0       0       0       0       0       
      +0       0       0       0
  3019 ;;      Temps:          0       0       0       0       0       0       0       0       0       0       0       0       
      +0       0       0       0
  3020 ;;      Totals:         0       0       0       0       0       0       0       0       0       0       0       0       
      +0       0       0       0
  3021 ;;Total ram usage:        0 bytes
  3022 ;; Hardware stack levels used: 1
  3023 ;; Hardware stack levels required when called: 1
  3024 ;; This function calls:
  3025 ;;		_EUSART1_SetErrorHandler
  3026 ;;		_EUSART1_SetFramingErrorHandler
  3027 ;;		_EUSART1_SetOverrunErrorHandler
  3028 ;; This function is called by:
  3029 ;;		_SYSTEM_Initialize
  3030 ;; This function uses a non-reentrant model
  3031 ;;
  3032                           
  3033                           	psect	text12
  3034  001DA2                     __ptext12:
  3035                           	callstack 0
  3036  001DA2                     _EUSART1_Initialize:
  3037                           	callstack 28
  3038  001DA2                     
  3039                           ;mcc_generated_files/eusart1.c: 71:     BAUD1CON = 0x08;
  3040  001DA2  0E08               	movlw	8
  3041  001DA4  6E9F               	movwf	159,c	;volatile
  3042                           
  3043                           ;mcc_generated_files/eusart1.c: 74:     RC1STA = 0x90;
  3044  001DA6  0E90               	movlw	144
  3045  001DA8  6E9D               	movwf	157,c	;volatile
  3046                           
  3047                           ;mcc_generated_files/eusart1.c: 77:     TX1STA = 0x24;
  3048  001DAA  0E24               	movlw	36
  3049  001DAC  6E9E               	movwf	158,c	;volatile
  3050                           
  3051                           ;mcc_generated_files/eusart1.c: 80:     SP1BRGL = 0x82;
  3052  001DAE  0E82               	movlw	130
  3053  001DB0  6E9B               	movwf	155,c	;volatile
  3054                           
  3055                           ;mcc_generated_files/eusart1.c: 83:     SP1BRGH = 0x06;
  3056  001DB2  0E06               	movlw	6
  3057  001DB4  6E9C               	movwf	156,c	;volatile
  3058  001DB6                     
  3059                           ;mcc_generated_files/eusart1.c: 86:     EUSART1_SetFramingErrorHandler(EUSART1_DefaultFr
      +                          amingErrorHandler);
  3060  001DB6  0E00               	movlw	0
  3061  001DB8  6E01               	movwf	EUSART1_SetFramingErrorHandler@interruptHandler^0,c
  3062  001DBA  0E00               	movlw	0
  3063  001DBC  6E02               	movwf	(EUSART1_SetFramingErrorHandler@interruptHandler+1)^0,c
  3064  001DBE  EC61  F00F         	call	_EUSART1_SetFramingErrorHandler	;wreg free
  3065  001DC2                     
  3066                           ;mcc_generated_files/eusart1.c: 87:     EUSART1_SetOverrunErrorHandler(EUSART1_DefaultOv
      +                          errunErrorHandler);
  3067  001DC2  0E00               	movlw	0
  3068  001DC4  6E01               	movwf	EUSART1_SetOverrunErrorHandler@interruptHandler^0,c
  3069  001DC6  0E00               	movlw	0
  3070  001DC8  6E02               	movwf	(EUSART1_SetOverrunErrorHandler@interruptHandler+1)^0,c
  3071  001DCA  EC5C  F00F         	call	_EUSART1_SetOverrunErrorHandler	;wreg free
  3072  001DCE                     
  3073                           ;mcc_generated_files/eusart1.c: 88:     EUSART1_SetErrorHandler(EUSART1_DefaultErrorHand
      +                          ler);
  3074  001DCE  0E00               	movlw	0
  3075  001DD0  6E01               	movwf	EUSART1_SetErrorHandler@interruptHandler^0,c
  3076  001DD2  0E00               	movlw	0
  3077  001DD4  6E02               	movwf	(EUSART1_SetErrorHandler@interruptHandler+1)^0,c
  3078  001DD6  EC66  F00F         	call	_EUSART1_SetErrorHandler	;wreg free
  3079  001DDA                     
  3080                           ;mcc_generated_files/eusart1.c: 90:     eusart1RxLastError.status = 0;
  3081  001DDA  0E00               	movlw	0
  3082  001DDC  6E4E               	movwf	_eusart1RxLastError^0,c	;volatile
  3083  001DDE  0012               	return		;funcret
  3084  001DE0                     __end_of_EUSART1_Initialize:
  3085                           	callstack 0
  3086                           
  3087 ;; *************** function _EUSART1_SetOverrunErrorHandler *****************
  3088 ;; Defined at:
  3089 ;;		line 161 in file "mcc_generated_files/eusart1.c"
  3090 ;; Parameters:    Size  Location     Type
  3091 ;;  interruptHan    2    0[COMRAM] PTR FTN()void 
  3092 ;;		 -> EUSART1_DefaultOverrunErrorHandler(1), 
  3093 ;; Auto vars:     Size  Location     Type
  3094 ;;		None
  3095 ;; Return value:  Size  Location     Type
  3096 ;;                  1    wreg      void 
  3097 ;; Registers used:
  3098 ;;		wreg, status,2, status,0
  3099 ;; Tracked objects:
  3100 ;;		On entry : 0/0
  3101 ;;		On exit  : 0/0
  3102 ;;		Unchanged: 0/0
  3103 ;; Data sizes:     COMRAM   BANK0   BANK1   BANK2   BANK3   BANK4   BANK5   BANK6   BANK7   BANK8   BANK9  BANK10  BANK1
      +1  BANK12  BANK13  BANK14
  3104 ;;      Params:         2       0       0       0       0       0       0       0       0       0       0       0       
      +0       0       0       0
  3105 ;;      Locals:         0       0       0       0       0       0       0       0       0       0       0       0       
      +0       0       0       0
  3106 ;;      Temps:          0       0       0       0       0       0       0       0       0       0       0       0       
      +0       0       0       0
  3107 ;;      Totals:         2       0       0       0       0       0       0       0       0       0       0       0       
      +0       0       0       0
  3108 ;;Total ram usage:        2 bytes
  3109 ;; Hardware stack levels used: 1
  3110 ;; This function calls:
  3111 ;;		Nothing
  3112 ;; This function is called by:
  3113 ;;		_EUSART1_Initialize
  3114 ;; This function uses a non-reentrant model
  3115 ;;
  3116                           
  3117                           	psect	text13
  3118  001EB8                     __ptext13:
  3119                           	callstack 0
  3120  001EB8                     _EUSART1_SetOverrunErrorHandler:
  3121                           	callstack 28
  3122  001EB8                     
  3123                           ;mcc_generated_files/eusart1.c: 162:     EUSART1_OverrunErrorHandler = interruptHandler;
  3124  001EB8  C001  F051         	movff	EUSART1_SetOverrunErrorHandler@interruptHandler,_EUSART1_OverrunErrorHandler
  3125  001EBC  C002  F052         	movff	EUSART1_SetOverrunErrorHandler@interruptHandler+1,_EUSART1_OverrunErrorHandler+1
  3126  001EC0  0012               	return		;funcret
  3127  001EC2                     __end_of_EUSART1_SetOverrunErrorHandler:
  3128                           	callstack 0
  3129                           
  3130 ;; *************** function _EUSART1_SetFramingErrorHandler *****************
  3131 ;; Defined at:
  3132 ;;		line 157 in file "mcc_generated_files/eusart1.c"
  3133 ;; Parameters:    Size  Location     Type
  3134 ;;  interruptHan    2    0[COMRAM] PTR FTN()void 
  3135 ;;		 -> EUSART1_DefaultFramingErrorHandler(1), 
  3136 ;; Auto vars:     Size  Location     Type
  3137 ;;		None
  3138 ;; Return value:  Size  Location     Type
  3139 ;;                  1    wreg      void 
  3140 ;; Registers used:
  3141 ;;		wreg, status,2, status,0
  3142 ;; Tracked objects:
  3143 ;;		On entry : 0/0
  3144 ;;		On exit  : 0/0
  3145 ;;		Unchanged: 0/0
  3146 ;; Data sizes:     COMRAM   BANK0   BANK1   BANK2   BANK3   BANK4   BANK5   BANK6   BANK7   BANK8   BANK9  BANK10  BANK1
      +1  BANK12  BANK13  BANK14
  3147 ;;      Params:         2       0       0       0       0       0       0       0       0       0       0       0       
      +0       0       0       0
  3148 ;;      Locals:         0       0       0       0       0       0       0       0       0       0       0       0       
      +0       0       0       0
  3149 ;;      Temps:          0       0       0       0       0       0       0       0       0       0       0       0       
      +0       0       0       0
  3150 ;;      Totals:         2       0       0       0       0       0       0       0       0       0       0       0       
      +0       0       0       0
  3151 ;;Total ram usage:        2 bytes
  3152 ;; Hardware stack levels used: 1
  3153 ;; This function calls:
  3154 ;;		Nothing
  3155 ;; This function is called by:
  3156 ;;		_EUSART1_Initialize
  3157 ;; This function uses a non-reentrant model
  3158 ;;
  3159                           
  3160                           	psect	text14
  3161  001EC2                     __ptext14:
  3162                           	callstack 0
  3163  001EC2                     _EUSART1_SetFramingErrorHandler:
  3164                           	callstack 28
  3165  001EC2                     
  3166                           ;mcc_generated_files/eusart1.c: 158:     EUSART1_FramingErrorHandler = interruptHandler;
  3167  001EC2  C001  F053         	movff	EUSART1_SetFramingErrorHandler@interruptHandler,_EUSART1_FramingErrorHandler
  3168  001EC6  C002  F054         	movff	EUSART1_SetFramingErrorHandler@interruptHandler+1,_EUSART1_FramingErrorHandler+1
  3169  001ECA  0012               	return		;funcret
  3170  001ECC                     __end_of_EUSART1_SetFramingErrorHandler:
  3171                           	callstack 0
  3172                           
  3173 ;; *************** function _EUSART1_SetErrorHandler *****************
  3174 ;; Defined at:
  3175 ;;		line 165 in file "mcc_generated_files/eusart1.c"
  3176 ;; Parameters:    Size  Location     Type
  3177 ;;  interruptHan    2    0[COMRAM] PTR FTN()void 
  3178 ;;		 -> EUSART1_DefaultErrorHandler(1), 
  3179 ;; Auto vars:     Size  Location     Type
  3180 ;;		None
  3181 ;; Return value:  Size  Location     Type
  3182 ;;                  1    wreg      void 
  3183 ;; Registers used:
  3184 ;;		wreg, status,2, status,0
  3185 ;; Tracked objects:
  3186 ;;		On entry : 0/0
  3187 ;;		On exit  : 0/0
  3188 ;;		Unchanged: 0/0
  3189 ;; Data sizes:     COMRAM   BANK0   BANK1   BANK2   BANK3   BANK4   BANK5   BANK6   BANK7   BANK8   BANK9  BANK10  BANK1
      +1  BANK12  BANK13  BANK14
  3190 ;;      Params:         2       0       0       0       0       0       0       0       0       0       0       0       
      +0       0       0       0
  3191 ;;      Locals:         0       0       0       0       0       0       0       0       0       0       0       0       
      +0       0       0       0
  3192 ;;      Temps:          0       0       0       0       0       0       0       0       0       0       0       0       
      +0       0       0       0
  3193 ;;      Totals:         2       0       0       0       0       0       0       0       0       0       0       0       
      +0       0       0       0
  3194 ;;Total ram usage:        2 bytes
  3195 ;; Hardware stack levels used: 1
  3196 ;; This function calls:
  3197 ;;		Nothing
  3198 ;; This function is called by:
  3199 ;;		_EUSART1_Initialize
  3200 ;; This function uses a non-reentrant model
  3201 ;;
  3202                           
  3203                           	psect	text15
  3204  001ECC                     __ptext15:
  3205                           	callstack 0
  3206  001ECC                     _EUSART1_SetErrorHandler:
  3207                           	callstack 28
  3208  001ECC                     
  3209                           ;mcc_generated_files/eusart1.c: 166:     EUSART1_ErrorHandler = interruptHandler;
  3210  001ECC  C001  F04F         	movff	EUSART1_SetErrorHandler@interruptHandler,_EUSART1_ErrorHandler
  3211  001ED0  C002  F050         	movff	EUSART1_SetErrorHandler@interruptHandler+1,_EUSART1_ErrorHandler+1
  3212  001ED4  0012               	return		;funcret
  3213  001ED6                     __end_of_EUSART1_SetErrorHandler:
  3214                           	callstack 0
  3215                           
  3216 ;; *************** function _ADCC_Initialize *****************
  3217 ;; Defined at:
  3218 ;;		line 62 in file "mcc_generated_files/adcc.c"
  3219 ;; Parameters:    Size  Location     Type
  3220 ;;		None
  3221 ;; Auto vars:     Size  Location     Type
  3222 ;;		None
  3223 ;; Return value:  Size  Location     Type
  3224 ;;                  1    wreg      void 
  3225 ;; Registers used:
  3226 ;;		wreg, status,2
  3227 ;; Tracked objects:
  3228 ;;		On entry : 0/0
  3229 ;;		On exit  : 0/0
  3230 ;;		Unchanged: 0/0
  3231 ;; Data sizes:     COMRAM   BANK0   BANK1   BANK2   BANK3   BANK4   BANK5   BANK6   BANK7   BANK8   BANK9  BANK10  BANK1
      +1  BANK12  BANK13  BANK14
  3232 ;;      Params:         0       0       0       0       0       0       0       0       0       0       0       0       
      +0       0       0       0
  3233 ;;      Locals:         0       0       0       0       0       0       0       0       0       0       0       0       
      +0       0       0       0
  3234 ;;      Temps:          0       0       0       0       0       0       0       0       0       0       0       0       
      +0       0       0       0
  3235 ;;      Totals:         0       0       0       0       0       0       0       0       0       0       0       0       
      +0       0       0       0
  3236 ;;Total ram usage:        0 bytes
  3237 ;; Hardware stack levels used: 1
  3238 ;; This function calls:
  3239 ;;		Nothing
  3240 ;; This function is called by:
  3241 ;;		_SYSTEM_Initialize
  3242 ;;		_main
  3243 ;; This function uses a non-reentrant model
  3244 ;;
  3245                           
  3246                           	psect	text16
  3247  001D52                     __ptext16:
  3248                           	callstack 0
  3249  001D52                     _ADCC_Initialize:
  3250                           	callstack 29
  3251  001D52                     
  3252                           ;mcc_generated_files/adcc.c: 66:     ADLTHL = 0x00;
  3253  001D52  0E00               	movlw	0
  3254  001D54  6E6A               	movwf	106,c	;volatile
  3255                           
  3256                           ;mcc_generated_files/adcc.c: 68:     ADLTHH = 0x00;
  3257  001D56  0E00               	movlw	0
  3258  001D58  6E6B               	movwf	107,c	;volatile
  3259                           
  3260                           ;mcc_generated_files/adcc.c: 70:     ADUTHL = 0x00;
  3261  001D5A  0E00               	movlw	0
  3262  001D5C  6E6C               	movwf	108,c	;volatile
  3263                           
  3264                           ;mcc_generated_files/adcc.c: 72:     ADUTHH = 0x00;
  3265  001D5E  0E00               	movlw	0
  3266  001D60  6E6D               	movwf	109,c	;volatile
  3267                           
  3268                           ;mcc_generated_files/adcc.c: 74:     ADSTPTL = 0x00;
  3269  001D62  0E00               	movlw	0
  3270  001D64  6E68               	movwf	104,c	;volatile
  3271                           
  3272                           ;mcc_generated_files/adcc.c: 76:     ADSTPTH = 0x00;
  3273  001D66  0E00               	movlw	0
  3274  001D68  6E69               	movwf	105,c	;volatile
  3275                           
  3276                           ;mcc_generated_files/adcc.c: 78:     ADRPT = 0x00;
  3277  001D6A  0E00               	movlw	0
  3278  001D6C  6E66               	movwf	102,c	;volatile
  3279                           
  3280                           ;mcc_generated_files/adcc.c: 80:     ADPCH = 0x00;
  3281  001D6E  0E00               	movlw	0
  3282  001D70  010F               	movlb	15	; () banked
  3283  001D72  6F5F               	movwf	95,b	;volatile
  3284                           
  3285                           ;mcc_generated_files/adcc.c: 82:     ADCAP = 0x00;
  3286  001D74  0E00               	movlw	0
  3287  001D76  6F5D               	movwf	93,b	;volatile
  3288                           
  3289                           ;mcc_generated_files/adcc.c: 84:     ADPRE = 0x00;
  3290  001D78  0E00               	movlw	0
  3291  001D7A  6F5E               	movwf	94,b	;volatile
  3292                           
  3293                           ;mcc_generated_files/adcc.c: 86:     ADCON1 = 0x00;
  3294  001D7C  0E00               	movlw	0
  3295  001D7E  6F59               	movwf	89,b	;volatile
  3296                           
  3297                           ;mcc_generated_files/adcc.c: 88:     ADCON2 = 0x00;
  3298  001D80  0E00               	movlw	0
  3299  001D82  6F5A               	movwf	90,b	;volatile
  3300                           
  3301                           ;mcc_generated_files/adcc.c: 90:     ADCON3 = 0x00;
  3302  001D84  0E00               	movlw	0
  3303  001D86  6F5B               	movwf	91,b	;volatile
  3304                           
  3305                           ;mcc_generated_files/adcc.c: 92:     ADSTAT = 0x00;
  3306  001D88  0E00               	movlw	0
  3307  001D8A  6E65               	movwf	101,c	;volatile
  3308                           
  3309                           ;mcc_generated_files/adcc.c: 94:     ADREF = 0x00;
  3310  001D8C  0E00               	movlw	0
  3311  001D8E  6F58               	movwf	88,b	;volatile
  3312                           
  3313                           ;mcc_generated_files/adcc.c: 96:     ADACT = 0x00;
  3314  001D90  0E00               	movlw	0
  3315  001D92  6F56               	movwf	86,b	;volatile
  3316                           
  3317                           ;mcc_generated_files/adcc.c: 98:     ADCLK = 0x1F;
  3318  001D94  0E1F               	movlw	31
  3319  001D96  6F57               	movwf	87,b	;volatile
  3320                           
  3321                           ;mcc_generated_files/adcc.c: 100:     ADCON0 = 0xC4;
  3322  001D98  0EC4               	movlw	196
  3323  001D9A  6E60               	movwf	96,c	;volatile
  3324                           
  3325                           ;mcc_generated_files/adcc.c: 102:     ADACQ = 0x00;
  3326  001D9C  0E00               	movlw	0
  3327  001D9E  6F5C               	movwf	92,b	;volatile
  3328  001DA0                     
  3329                           ; BSR set to: 15
  3330  001DA0  0012               	return		;funcret
  3331  001DA2                     __end_of_ADCC_Initialize:
  3332                           	callstack 0
  3333                           
  3334 ;; *************** function _ADCC_GetSingleConversion *****************
  3335 ;; Defined at:
  3336 ;;		line 131 in file "mcc_generated_files/adcc.c"
  3337 ;; Parameters:    Size  Location     Type
  3338 ;;  channel         1    wreg     enum E9562
  3339 ;; Auto vars:     Size  Location     Type
  3340 ;;  channel         1    4[COMRAM] enum E9562
  3341 ;; Return value:  Size  Location     Type
  3342 ;;                  2    0[COMRAM] unsigned short 
  3343 ;; Registers used:
  3344 ;;		wreg, status,2, status,0
  3345 ;; Tracked objects:
  3346 ;;		On entry : 0/0
  3347 ;;		On exit  : 0/0
  3348 ;;		Unchanged: 0/0
  3349 ;; Data sizes:     COMRAM   BANK0   BANK1   BANK2   BANK3   BANK4   BANK5   BANK6   BANK7   BANK8   BANK9  BANK10  BANK1
      +1  BANK12  BANK13  BANK14
  3350 ;;      Params:         2       0       0       0       0       0       0       0       0       0       0       0       
      +0       0       0       0
  3351 ;;      Locals:         1       0       0       0       0       0       0       0       0       0       0       0       
      +0       0       0       0
  3352 ;;      Temps:          2       0       0       0       0       0       0       0       0       0       0       0       
      +0       0       0       0
  3353 ;;      Totals:         5       0       0       0       0       0       0       0       0       0       0       0       
      +0       0       0       0
  3354 ;;Total ram usage:        5 bytes
  3355 ;; Hardware stack levels used: 1
  3356 ;; This function calls:
  3357 ;;		Nothing
  3358 ;; This function is called by:
  3359 ;;		_main
  3360 ;; This function uses a non-reentrant model
  3361 ;;
  3362                           
  3363                           	psect	text17
  3364  001E16                     __ptext17:
  3365                           	callstack 0
  3366  001E16                     _ADCC_GetSingleConversion:
  3367                           	callstack 30
  3368                           
  3369                           ; BSR set to: 15
  3370                           ;incstack = 0
  3371                           ;ADCC_GetSingleConversion@channel stored from wreg
  3372  001E16  6E05               	movwf	ADCC_GetSingleConversion@channel^0,c
  3373  001E18                     
  3374                           ;mcc_generated_files/adcc.c: 131: adc_result_t ADCC_GetSingleConversion(adcc_channel_t c
      +                          hannel);mcc_generated_files/adcc.c: 132: {;mcc_generated_files/adcc.c: 134:     ADPCH = 
      +                          channel;
  3375  001E18  C005  FF5F         	movff	ADCC_GetSingleConversion@channel,3935	;volatile
  3376  001E1C                     
  3377                           ;mcc_generated_files/adcc.c: 137:     ADCON0bits.ADON = 1;
  3378  001E1C  8E60               	bsf	96,7,c	;volatile
  3379  001E1E                     
  3380                           ;mcc_generated_files/adcc.c: 140:     ADCON0bits.ADCONT = 0;
  3381  001E1E  9C60               	bcf	96,6,c	;volatile
  3382  001E20                     
  3383                           ;mcc_generated_files/adcc.c: 143:     ADCON0bits.ADGO = 1;
  3384  001E20  8060               	bsf	96,0,c	;volatile
  3385  001E22                     l522:
  3386                           
  3387                           ;mcc_generated_files/adcc.c: 147:     while (ADCON0bits.ADGO)
  3388  001E22  B060               	btfsc	96,0,c	;volatile
  3389  001E24  EF16  F00F         	goto	u841
  3390  001E28  EF18  F00F         	goto	u840
  3391  001E2C                     u841:
  3392  001E2C  EF11  F00F         	goto	l522
  3393  001E30                     u840:
  3394  001E30                     
  3395                           ;mcc_generated_files/adcc.c: 153:     return ((adc_result_t)((ADRESH << 8) + ADRESL));
  3396  001E30  5064               	movf	100,w,c	;volatile
  3397  001E32  6E04               	movwf	(??_ADCC_GetSingleConversion+1)^0,c
  3398  001E34  6A03               	clrf	??_ADCC_GetSingleConversion^0,c
  3399  001E36  5063               	movf	99,w,c	;volatile
  3400  001E38  2403               	addwf	??_ADCC_GetSingleConversion^0,w,c
  3401  001E3A  6E01               	movwf	?_ADCC_GetSingleConversion^0,c
  3402  001E3C  0E00               	movlw	0
  3403  001E3E  2004               	addwfc	(??_ADCC_GetSingleConversion+1)^0,w,c
  3404  001E40  6E02               	movwf	(?_ADCC_GetSingleConversion+1)^0,c
  3405  001E42  0012               	return		;funcret
  3406  001E44                     __end_of_ADCC_GetSingleConversion:
  3407                           	callstack 0
  3408                           
  3409                           	psect	rparam
  3410  0000                     
  3411                           	psect	idloc
  3412                           
  3413                           ;Config register IDLOC0 @ 0x200000
  3414                           ;	unspecified, using default values
  3415  200000                     	org	2097152
  3416  200000  0FFF               	dw	4095
  3417                           
  3418                           ;Config register IDLOC1 @ 0x200002
  3419                           ;	unspecified, using default values
  3420  200002                     	org	2097154
  3421  200002  0FFF               	dw	4095
  3422                           
  3423                           ;Config register IDLOC2 @ 0x200004
  3424                           ;	unspecified, using default values
  3425  200004                     	org	2097156
  3426  200004  0FFF               	dw	4095
  3427                           
  3428                           ;Config register IDLOC3 @ 0x200006
  3429                           ;	unspecified, using default values
  3430  200006                     	org	2097158
  3431  200006  0FFF               	dw	4095
  3432                           
  3433                           ;Config register IDLOC4 @ 0x200008
  3434                           ;	unspecified, using default values
  3435  200008                     	org	2097160
  3436  200008  0FFF               	dw	4095
  3437                           
  3438                           ;Config register IDLOC5 @ 0x20000A
  3439                           ;	unspecified, using default values
  3440  20000A                     	org	2097162
  3441  20000A  0FFF               	dw	4095
  3442                           
  3443                           ;Config register IDLOC6 @ 0x20000C
  3444                           ;	unspecified, using default values
  3445  20000C                     	org	2097164
  3446  20000C  0FFF               	dw	4095
  3447                           
  3448                           ;Config register IDLOC7 @ 0x20000E
  3449                           ;	unspecified, using default values
  3450  20000E                     	org	2097166
  3451  20000E  0FFF               	dw	4095
  3452                           
  3453                           	psect	config
  3454                           
  3455                           ;Config register CONFIG1L @ 0x300000
  3456                           ;	External Oscillator mode Selection bits
  3457                           ;	FEXTOSC = OFF, Oscillator not enabled
  3458                           ;	Power-up default value for COSC bits
  3459                           ;	RSTOSC = HFINTOSC_64MHZ, HFINTOSC with HFFRQ = 64 MHz and CDIV = 1:1
  3460  300000                     	org	3145728
  3461  300000  8C                 	db	140
  3462                           
  3463                           ;Config register CONFIG1H @ 0x300001
  3464                           ;	Clock Out Enable bit
  3465                           ;	CLKOUTEN = OFF, CLKOUT function is disabled
  3466                           ;	Clock Switch Enable bit
  3467                           ;	CSWEN = ON, Writing to NOSC and NDIV is allowed
  3468                           ;	Fail-Safe Clock Monitor Enable bit
  3469                           ;	FCMEN = ON, Fail-Safe Clock Monitor enabled
  3470  300001                     	org	3145729
  3471  300001  FF                 	db	255
  3472                           
  3473                           ;Config register CONFIG2L @ 0x300002
  3474                           ;	Master Clear Enable bit
  3475                           ;	MCLRE = EXTMCLR, If LVP = 0, MCLR pin is MCLR; If LVP = 1, RE3 pin function is MCLR
  3476                           ;	Power-up Timer Enable bit
  3477                           ;	PWRTE = OFF, Power up timer disabled
  3478                           ;	Low-power BOR enable bit
  3479                           ;	LPBOREN = OFF, ULPBOR disabled
  3480                           ;	Brown-out Reset Enable bits
  3481                           ;	BOREN = SBORDIS, Brown-out Reset enabled , SBOREN bit is ignored
  3482  300002                     	org	3145730
  3483  300002  FF                 	db	255
  3484                           
  3485                           ;Config register CONFIG2H @ 0x300003
  3486                           ;	Brown Out Reset Voltage selection bits
  3487                           ;	BORV = VBOR_190, Brown-out Reset Voltage (VBOR) set to 1.90V
  3488                           ;	ZCD Disable bit
  3489                           ;	ZCD = OFF, ZCD disabled. ZCD can be enabled by setting the ZCDSEN bit of ZCDCON
  3490                           ;	PPSLOCK bit One-Way Set Enable bit
  3491                           ;	PPS1WAY = ON, PPSLOCK bit can be cleared and set only once; PPS registers remain locke
      +                          d after one clear/set cycle
  3492                           ;	Stack Full/Underflow Reset Enable bit
  3493                           ;	STVREN = ON, Stack full/underflow will cause Reset
  3494                           ;	Debugger Enable bit
  3495                           ;	DEBUG = OFF, Background debugger disabled
  3496                           ;	Extended Instruction Set Enable bit
  3497                           ;	XINST = OFF, Extended Instruction Set and Indexed Addressing Mode disabled
  3498  300003                     	org	3145731
  3499  300003  FF                 	db	255
  3500                           
  3501                           ;Config register CONFIG3L @ 0x300004
  3502                           ;	WDT Period Select bits
  3503                           ;	WDTCPS = WDTCPS_31, Divider ratio 1:65536; software control of WDTPS
  3504                           ;	WDT operating mode
  3505                           ;	WDTE = OFF, WDT Disabled
  3506  300004                     	org	3145732
  3507  300004  9F                 	db	159
  3508                           
  3509                           ;Config register CONFIG3H @ 0x300005
  3510                           ;	WDT Window Select bits
  3511                           ;	WDTCWS = WDTCWS_7, window always open (100%); software control; keyed access not requi
      +                          red
  3512                           ;	WDT input clock selector
  3513                           ;	WDTCCS = SC, Software Control
  3514  300005                     	org	3145733
  3515  300005  FF                 	db	255
  3516                           
  3517                           ;Config register CONFIG4L @ 0x300006
  3518                           ;	Write Protection Block 0
  3519                           ;	WRT0 = OFF, Block 0 (000800-003FFFh) not write-protected
  3520                           ;	Write Protection Block 1
  3521                           ;	WRT1 = OFF, Block 1 (004000-007FFFh) not write-protected
  3522                           ;	Write Protection Block 2
  3523                           ;	WRT2 = OFF, Block 2 (008000-00BFFFh) not write-protected
  3524                           ;	Write Protection Block 3
  3525                           ;	WRT3 = OFF, Block 3 (00C000-00FFFFh) not write-protected
  3526  300006                     	org	3145734
  3527  300006  FF                 	db	255
  3528                           
  3529                           ;Config register CONFIG4H @ 0x300007
  3530                           ;	Configuration Register Write Protection bit
  3531                           ;	WRTC = OFF, Configuration registers (300000-30000Bh) not write-protected
  3532                           ;	Boot Block Write Protection bit
  3533                           ;	WRTB = OFF, Boot Block (000000-0007FFh) not write-protected
  3534                           ;	Data EEPROM Write Protection bit
  3535                           ;	WRTD = OFF, Data EEPROM not write-protected
  3536                           ;	Scanner Enable bit
  3537                           ;	SCANE = ON, Scanner module is available for use, SCANMD bit can control the module
  3538                           ;	Low Voltage Programming Enable bit
  3539                           ;	LVP = ON, Low voltage programming enabled. MCLR/VPP pin function is MCLR. MCLRE config
      +                          uration bit is ignored
  3540  300007                     	org	3145735
  3541  300007  FF                 	db	255
  3542                           
  3543                           ;Config register CONFIG5L @ 0x300008
  3544                           ;	UserNVM Program Memory Code Protection bit
  3545                           ;	CP = OFF, UserNVM code protection disabled
  3546                           ;	DataNVM Memory Code Protection bit
  3547                           ;	CPD = OFF, DataNVM code protection disabled
  3548  300008                     	org	3145736
  3549  300008  FF                 	db	255
  3550                           
  3551                           ;Config register CONFIG5H @ 0x300009
  3552                           ;	unspecified, using default values
  3553  300009                     	org	3145737
  3554  300009  FF                 	db	255
  3555                           
  3556                           ;Config register CONFIG6L @ 0x30000A
  3557                           ;	Table Read Protection Block 0
  3558                           ;	EBTR0 = OFF, Block 0 (000800-003FFFh) not protected from table reads executed in other
      +                           blocks
  3559                           ;	Table Read Protection Block 1
  3560                           ;	EBTR1 = OFF, Block 1 (004000-007FFFh) not protected from table reads executed in other
      +                           blocks
  3561                           ;	Table Read Protection Block 2
  3562                           ;	EBTR2 = OFF, Block 2 (008000-00BFFFh) not protected from table reads executed in other
      +                           blocks
  3563                           ;	Table Read Protection Block 3
  3564                           ;	EBTR3 = OFF, Block 3 (00C000-00FFFFh) not protected from table reads executed in other
      +                           blocks
  3565  30000A                     	org	3145738
  3566  30000A  FF                 	db	255
  3567                           
  3568                           ;Config register CONFIG6H @ 0x30000B
  3569                           ;	Boot Block Table Read Protection bit
  3570                           ;	EBTRB = OFF, Boot Block (000000-0007FFh) not protected from table reads executed in ot
      +                          her blocks
  3571  30000B                     	org	3145739
  3572  30000B  FF                 	db	255
  3573                           tosu	equ	0xFFF
  3574                           tosh	equ	0xFFE
  3575                           tosl	equ	0xFFD
  3576                           stkptr	equ	0xFFC
  3577                           pclatu	equ	0xFFB
  3578                           pclath	equ	0xFFA
  3579                           pcl	equ	0xFF9
  3580                           tblptru	equ	0xFF8
  3581                           tblptrh	equ	0xFF7
  3582                           tblptrl	equ	0xFF6
  3583                           tablat	equ	0xFF5
  3584                           prodh	equ	0xFF4
  3585                           prodl	equ	0xFF3
  3586                           indf0	equ	0xFEF
  3587                           postinc0	equ	0xFEE
  3588                           postdec0	equ	0xFED
  3589                           preinc0	equ	0xFEC
  3590                           plusw0	equ	0xFEB
  3591                           fsr0h	equ	0xFEA
  3592                           fsr0l	equ	0xFE9
  3593                           wreg	equ	0xFE8
  3594                           indf1	equ	0xFE7
  3595                           postinc1	equ	0xFE6
  3596                           postdec1	equ	0xFE5
  3597                           preinc1	equ	0xFE4
  3598                           plusw1	equ	0xFE3
  3599                           fsr1h	equ	0xFE2
  3600                           fsr1l	equ	0xFE1
  3601                           bsr	equ	0xFE0
  3602                           indf2	equ	0xFDF
  3603                           postinc2	equ	0xFDE
  3604                           postdec2	equ	0xFDD
  3605                           preinc2	equ	0xFDC
  3606                           plusw2	equ	0xFDB
  3607                           fsr2h	equ	0xFDA
  3608                           fsr2l	equ	0xFD9
  3609                           status	equ	0xFD8

Data Sizes:
    Strings     0
    Constant    32
    Data        0
    BSS         37
    Persistent  6
    Stack       0

Auto Spaces:
    Space          Size  Autos    Used
    COMRAM           95     41      84
    BANK0           160      0       0
    BANK1           256      0       0
    BANK2           256      0       0
    BANK3           256      0       0
    BANK4           256      0       0
    BANK5           256      0       0
    BANK6           256      0       0
    BANK7           256      0       0
    BANK8           256      0       0
    BANK9           256      0       0
    BANK10          256      0       0
    BANK11          256      0       0
    BANK12          256      0       0
    BANK13          256      0       0
    BANK14          136      0       0

Pointer List with Targets:

    I2C1_Read1ByteRegister@returnValue.data	PTR unsigned char  size(2) Largest target is 0

    I2C1_Read2ByteRegister@returnValue.data	PTR unsigned char  size(2) Largest target is 0

    I2C1_Write1ByteRegister@data.data	PTR unsigned char  size(2) Largest target is 0

    I2C1_Write2ByteRegister@data.data	PTR unsigned char  size(2) Largest target is 0

    I2C1_DO_TX$2531$0	PTR void  size(2) Largest target is 5
		 -> I2C1_ReadDataBlock@bufferBlock(COMRAM[4]), I2C1_Write2ByteRegister@data(COMRAM[2]), I2C1_Write1ByteRegister@data(COMRAM[1]), I2C1_Read2ByteRegister@returnValue(COMRAM[2]), 
		 -> NULL(NULL[0]), I2C1_Read1ByteRegister@returnValue(COMRAM[1]), 

    I2C1_DO_RX$2537$0	PTR void  size(2) Largest target is 5
		 -> I2C1_ReadDataBlock@bufferBlock(COMRAM[4]), I2C1_Write2ByteRegister@data(COMRAM[2]), I2C1_Write1ByteRegister@data(COMRAM[1]), I2C1_Read2ByteRegister@returnValue(COMRAM[2]), 
		 -> NULL(NULL[0]), I2C1_Read1ByteRegister@returnValue(COMRAM[1]), 

    I2C1_DO_TX_EMPTY$2543$0	PTR void  size(2) Largest target is 5
		 -> I2C1_ReadDataBlock@bufferBlock(COMRAM[4]), I2C1_Write2ByteRegister@data(COMRAM[2]), I2C1_Write1ByteRegister@data(COMRAM[1]), I2C1_Read2ByteRegister@returnValue(COMRAM[2]), 
		 -> NULL(NULL[0]), I2C1_Read1ByteRegister@returnValue(COMRAM[1]), 

    I2C1_DO_RX_EMPTY$2549$0	PTR void  size(2) Largest target is 5
		 -> I2C1_ReadDataBlock@bufferBlock(COMRAM[4]), I2C1_Write2ByteRegister@data(COMRAM[2]), I2C1_Write1ByteRegister@data(COMRAM[1]), I2C1_Read2ByteRegister@returnValue(COMRAM[2]), 
		 -> NULL(NULL[0]), I2C1_Read1ByteRegister@returnValue(COMRAM[1]), 

    cb$0	PTR void  size(2) Largest target is 5
		 -> I2C1_ReadDataBlock@bufferBlock(COMRAM[4]), I2C1_Write2ByteRegister@data(COMRAM[2]), I2C1_Write1ByteRegister@data(COMRAM[1]), I2C1_Read2ByteRegister@returnValue(COMRAM[2]), 
		 -> NULL(NULL[0]), I2C1_Read1ByteRegister@returnValue(COMRAM[1]), 

    Absolute function$0	PTR void  size(2) Largest target is 5
		 -> I2C1_ReadDataBlock@bufferBlock(COMRAM[4]), I2C1_Write2ByteRegister@data(COMRAM[2]), I2C1_Write1ByteRegister@data(COMRAM[1]), I2C1_Read2ByteRegister@returnValue(COMRAM[2]), 
		 -> NULL(NULL[0]), I2C1_Read1ByteRegister@returnValue(COMRAM[1]), 

    cb$0	PTR void  size(2) Largest target is 5
		 -> I2C1_ReadDataBlock@bufferBlock(COMRAM[4]), I2C1_Write2ByteRegister@data(COMRAM[2]), I2C1_Write1ByteRegister@data(COMRAM[1]), I2C1_Read2ByteRegister@returnValue(COMRAM[2]), 
		 -> NULL(NULL[0]), I2C1_Read1ByteRegister@returnValue(COMRAM[1]), 

    S248$0$0	PTR void  size(2) Largest target is 5
		 -> I2C1_ReadDataBlock@bufferBlock(COMRAM[4]), I2C1_Write2ByteRegister@data(COMRAM[2]), I2C1_Write1ByteRegister@data(COMRAM[1]), I2C1_Read2ByteRegister@returnValue(COMRAM[2]), 
		 -> NULL(NULL[0]), I2C1_Read1ByteRegister@returnValue(COMRAM[1]), 

    EUSART1_SetErrorHandler@interruptHandler	PTR FTN()void  size(2) Largest target is 1
		 -> EUSART1_DefaultErrorHandler(), 

    EUSART1_ErrorHandler	PTR FTN()void  size(2) Largest target is 1
		 -> EUSART1_DefaultErrorHandler(), Absolute function(), 

    EUSART1_SetOverrunErrorHandler@interruptHandler	PTR FTN()void  size(2) Largest target is 1
		 -> EUSART1_DefaultOverrunErrorHandler(), 

    EUSART1_OverrunErrorHandler	PTR FTN()void  size(2) Largest target is 1
		 -> EUSART1_DefaultOverrunErrorHandler(), Absolute function(), 

    EUSART1_SetFramingErrorHandler@interruptHandler	PTR FTN()void  size(2) Largest target is 1
		 -> EUSART1_DefaultFramingErrorHandler(), 

    EUSART1_FramingErrorHandler	PTR FTN()void  size(2) Largest target is 1
		 -> EUSART1_DefaultFramingErrorHandler(), Absolute function(), 

    S248$data_ptr	PTR unsigned char  size(2) Largest target is 5
		 -> I2C1_ReadDataBlock@reg(COMRAM[1]), I2C1_ReadDataBlock@bufferBlock(COMRAM[4]), I2C1_Write2ByteRegister@reg(COMRAM[1]), I2C1_Write2ByteRegister@data(COMRAM[2]), 
		 -> I2C1_Write1ByteRegister@reg(COMRAM[1]), I2C1_Write1ByteRegister@data(COMRAM[1]), I2C1_Read2ByteRegister@reg(COMRAM[1]), I2C1_Read2ByteRegister@returnValue(COMRAM[2]), 
		 -> NULL(NULL[0]), I2C1_Read1ByteRegister@reg(COMRAM[1]), I2C1_Read1ByteRegister@returnValue(COMRAM[1]), 

    I2C1_Status.data_ptr	PTR unsigned char  size(2) Largest target is 5
		 -> I2C1_ReadDataBlock@reg(COMRAM[1]), I2C1_ReadDataBlock@bufferBlock(COMRAM[4]), I2C1_Write2ByteRegister@reg(COMRAM[1]), I2C1_Write2ByteRegister@data(COMRAM[2]), 
		 -> I2C1_Write1ByteRegister@reg(COMRAM[1]), I2C1_Write1ByteRegister@data(COMRAM[1]), I2C1_Read2ByteRegister@reg(COMRAM[1]), I2C1_Read2ByteRegister@returnValue(COMRAM[2]), 
		 -> NULL(NULL[0]), I2C1_Read1ByteRegister@reg(COMRAM[1]), I2C1_Read1ByteRegister@returnValue(COMRAM[1]), 

    S248$callbackPayload	PTR void [6] size(2) Largest target is 5
		 -> I2C1_ReadDataBlock@bufferBlock(COMRAM[4]), I2C1_Write2ByteRegister@data(COMRAM[2]), I2C1_Write1ByteRegister@data(COMRAM[1]), I2C1_Read2ByteRegister@returnValue(COMRAM[2]), 
		 -> NULL(NULL[0]), I2C1_Read1ByteRegister@returnValue(COMRAM[1]), 

    I2C1_Status.callbackPayload	PTR void [6] size(2) Largest target is 5
		 -> I2C1_ReadDataBlock@bufferBlock(COMRAM[4]), I2C1_Write2ByteRegister@data(COMRAM[2]), I2C1_Write1ByteRegister@data(COMRAM[1]), I2C1_Read2ByteRegister@returnValue(COMRAM[2]), 
		 -> NULL(NULL[0]), I2C1_Read1ByteRegister@returnValue(COMRAM[1]), 

    S248$callbackTable	PTR FTN(PTR void ,)enum E360[6] size(2) Largest target is 1
		 -> I2C1_CallbackReturnReset(), I2C1_CallbackReturnStop(), Absolute function(), rdBlkRegCompleteHandler(), 
		 -> wr2RegCompleteHandler(), wr1RegCompleteHandler(), rd2RegCompleteHandler(), rd1RegCompleteHandler(), 

    I2C1_Status.callbackTable	PTR FTN(PTR void ,)enum E360[6] size(2) Largest target is 1
		 -> I2C1_CallbackReturnReset(), I2C1_CallbackReturnStop(), Absolute function(), rdBlkRegCompleteHandler(), 
		 -> wr2RegCompleteHandler(), wr1RegCompleteHandler(), rd2RegCompleteHandler(), rd1RegCompleteHandler(), 

    i2c1_fsmStateTable	const PTR FTN()enum E9951[16] size(2) Largest target is 1
		 -> I2C1_DO_ADDRESS_NACK(), I2C1_DO_RESET(), I2C1_DO_RX_NACK_RESTART(), I2C1_DO_RX_NACK_STOP(), 
		 -> I2C1_DO_RX_ACK(), I2C1_DO_SEND_STOP(), I2C1_DO_SEND_RESTART(), I2C1_DO_SEND_RESTART_WRITE(), 
		 -> I2C1_DO_SEND_RESTART_READ(), I2C1_DO_TX_EMPTY(), I2C1_DO_RCEN(), I2C1_DO_RX(), 
		 -> I2C1_DO_TX(), I2C1_DO_SEND_ADR_WRITE(), I2C1_DO_SEND_ADR_READ(), I2C1_DO_IDLE(), 

    rdBlkRegCompleteHandler@ptr.data	PTR unsigned char  size(2) Largest target is 0

    S96$data	PTR unsigned char  size(2) Largest target is 0

    bufferBlock.data	PTR unsigned char  size(2) Largest target is 0


Critical Paths under _main in COMRAM

    _main->___flmul
    _motorCW->_delay_ms
    _motorCCW->_delay_ms
    _EUSART1_Initialize->_EUSART1_SetErrorHandler
    _EUSART1_Initialize->_EUSART1_SetFramingErrorHandler
    _EUSART1_Initialize->_EUSART1_SetOverrunErrorHandler

Critical Paths under _main in BANK0

    None.

Critical Paths under _main in BANK1

    None.

Critical Paths under _main in BANK2

    None.

Critical Paths under _main in BANK3

    None.

Critical Paths under _main in BANK4

    None.

Critical Paths under _main in BANK5

    None.

Critical Paths under _main in BANK6

    None.

Critical Paths under _main in BANK7

    None.

Critical Paths under _main in BANK8

    None.

Critical Paths under _main in BANK9

    None.

Critical Paths under _main in BANK10

    None.

Critical Paths under _main in BANK11

    None.

Critical Paths under _main in BANK12

    None.

Critical Paths under _main in BANK13

    None.

Critical Paths under _main in BANK14

    None.

Call Graph Tables:

 ---------------------------------------------------------------------------------
 (Depth) Function   	        Calls       Base Space   Used Autos Params    Refs
 ---------------------------------------------------------------------------------
 (0) _main                                                16    16      0    5066
                                             25 COMRAM    16    16      0
           _ADCC_GetSingleConversion
                    _ADCC_Initialize
                  _SYSTEM_Initialize
                             ___flge
                            ___flmul
                           ___xxtofl
                           _motorCCW
                            _motorCW
 ---------------------------------------------------------------------------------
 (1) _motorCW                                              8     4      4    1091
                                              3 COMRAM     8     4      4
                           _delay_ms
 ---------------------------------------------------------------------------------
 (1) _motorCCW                                             8     4      4    1091
                                              3 COMRAM     8     4      4
                           _delay_ms
 ---------------------------------------------------------------------------------
 (2) _delay_ms                                             3     1      2     783
                                              0 COMRAM     3     1      2
 ---------------------------------------------------------------------------------
 (1) ___xxtofl                                            14    10      4     398
                                              0 COMRAM    14    10      4
 ---------------------------------------------------------------------------------
 (1) ___flmul                                             25    17      8    1744
                                              0 COMRAM    25    17      8
 ---------------------------------------------------------------------------------
 (1) ___flge                                              12     4      8     334
                                              0 COMRAM    12     4      8
 ---------------------------------------------------------------------------------
 (1) _SYSTEM_Initialize                                    0     0      0     294
                    _ADCC_Initialize
                 _EUSART1_Initialize
                    _I2C1_Initialize
              _OSCILLATOR_Initialize
             _PIN_MANAGER_Initialize
                     _PMD_Initialize
 ---------------------------------------------------------------------------------
 (2) _PMD_Initialize                                       0     0      0       0
 ---------------------------------------------------------------------------------
 (2) _PIN_MANAGER_Initialize                               0     0      0       0
 ---------------------------------------------------------------------------------
 (2) _OSCILLATOR_Initialize                                0     0      0       0
 ---------------------------------------------------------------------------------
 (2) _I2C1_Initialize                                      0     0      0       0
 ---------------------------------------------------------------------------------
 (2) _EUSART1_Initialize                                   0     0      0     294
            _EUSART1_SetErrorHandler
     _EUSART1_SetFramingErrorHandler
     _EUSART1_SetOverrunErrorHandler
 ---------------------------------------------------------------------------------
 (3) _EUSART1_SetOverrunErrorHandler                       2     0      2      98
                                              0 COMRAM     2     0      2
 ---------------------------------------------------------------------------------
 (3) _EUSART1_SetFramingErrorHandler                       2     0      2      98
                                              0 COMRAM     2     0      2
 ---------------------------------------------------------------------------------
 (3) _EUSART1_SetErrorHandler                              2     0      2      98
                                              0 COMRAM     2     0      2
 ---------------------------------------------------------------------------------
 (2) _ADCC_Initialize                                      0     0      0       0
 ---------------------------------------------------------------------------------
 (1) _ADCC_GetSingleConversion                             5     3      2      22
                                              0 COMRAM     5     3      2
 ---------------------------------------------------------------------------------
 Estimated maximum stack depth 3
 ---------------------------------------------------------------------------------

 Call Graph Graphs:

 _main (ROOT)
   _ADCC_GetSingleConversion
   _ADCC_Initialize
   _SYSTEM_Initialize
     _ADCC_Initialize
     _EUSART1_Initialize
       _EUSART1_SetErrorHandler
       _EUSART1_SetFramingErrorHandler
       _EUSART1_SetOverrunErrorHandler
     _I2C1_Initialize
     _OSCILLATOR_Initialize
     _PIN_MANAGER_Initialize
     _PMD_Initialize
   ___flge
   ___flmul
   ___xxtofl
   _motorCCW
     _delay_ms
   _motorCW
     _delay_ms

 Address spaces:
Name               Size   Autos  Total    Cost      Usage
BIGRAM             E87      0       0      35        0.0%
EEDATA             400      0       0       0        0.0%
BITBANK13          100      0       0      31        0.0%
BANK13             100      0       0      32        0.0%
BITBANK12          100      0       0      29        0.0%
BANK12             100      0       0      30        0.0%
BITBANK11          100      0       0      27        0.0%
BANK11             100      0       0      28        0.0%
BITBANK10          100      0       0      25        0.0%
BANK10             100      0       0      26        0.0%
BITBANK9           100      0       0      23        0.0%
BANK9              100      0       0      24        0.0%
BITBANK8           100      0       0      21        0.0%
BANK8              100      0       0      22        0.0%
BITBANK7           100      0       0      19        0.0%
BANK7              100      0       0      20        0.0%
BITBANK6           100      0       0      17        0.0%
BANK6              100      0       0      18        0.0%
BITBANK5           100      0       0      15        0.0%
BANK5              100      0       0      16        0.0%
BITBANK4           100      0       0      13        0.0%
BANK4              100      0       0      14        0.0%
BITBANK3           100      0       0      11        0.0%
BANK3              100      0       0      12        0.0%
BITBANK2           100      0       0       9        0.0%
BANK2              100      0       0      10        0.0%
BITBANK1           100      0       0       7        0.0%
BANK1              100      0       0       8        0.0%
BITBANK0            A0      0       0       4        0.0%
BANK0               A0      0       0       5        0.0%
BITBANK14           88      0       0      33        0.0%
BANK14              88      0       0      34        0.0%
BITCOMRAM           5F      0       0       0        0.0%
COMRAM              5F     29      54       1       88.4%
BITSFR_2             0      0       0     200        0.0%
SFR_2                0      0       0     200        0.0%
BITSFR_1             0      0       0     200        0.0%
SFR_1                0      0       0     200        0.0%
BITSFR               0      0       0     200        0.0%
SFR                  0      0       0     200        0.0%
STACK                0      0       0       2        0.0%
NULL                 0      0       0       0        0.0%
ABS                  0      0      54       6        0.0%
DATA                 0      0      54       3        0.0%
CODE                 0      0       0       0        0.0%


Microchip Technology PIC18 Macro Assembler V2.32 build 20210201212658 
Symbol Table                                                                                   Sun Mar 27 18:24:10 2022

                                           l207 1EA4                                             l510 1DA0  
                                           l522 1E22                                             l525 1E42  
                                           l803 1DFA                                             l811 15A2  
                                           l740 1EC0                                             l652 1D50  
                                           l901 134E                                             l806 1E14  
                                           l822 15DE                                             l743 1ED4  
                                           l815 15C8                                             l912 138A  
                                           l737 1ECA                                             l817 15CA  
                                           l809 15A0                                             l905 1374  
                                           l850 169C                                             l826 15F0  
                                           l907 1376                                             l780 1E78  
                                           l940 1448                                             l916 139C  
                                           l854 16AE                                             l846 1680  
                                           l783 1E90                                             l944 145A  
                                           l936 142C                                             l698 1DDE  
                                           l786 1E5E                                             l890 1790  
                                           l882 176C                                             l858 16C0  
                                           l892 17D6                                             l980 153C  
                                           l972 1518                                             l948 146C  
                                           l894 17D8                                             l886 177E  
                                           l878 1750                                             l982 1582  
                                           l896 17F2                                             l984 1584  
                                           l976 152A                                             l968 14FC  
                                           l986 159E                                             l899 134C  
                                           _RA7 007C6F                                             u900 0F9E  
                                           u901 0F9A                                             u910 0FB0  
                                           u830 1E14                                             u911 0FAC  
                                           u831 1E10                                             u840 1E30  
                                           u920 0FC0                                             u841 1E2C  
                                           u921 0FBC                                             u930 0FF6  
                                           u850 17D6                                             u931 0FF2  
                                           u851 17D2                                             u940 1006  
                                           u860 1582                                             u941 1002  
                                           u861 157E                                             u950 1180  
                                           u870 0F3C                                             u871 0F38  
                                           u960 11DA                                             u880 0F4E  
                                           u961 11D6                                             u881 0F4A  
                                           u970 11FA                                             u890 0F5E  
                                           u971 11F6                                             u955 1176  
                                           u891 0F5A                                             u980 120C  
                                           u981 1208                                             u990 123A  
                                           u991 1236                         __size_of_PMD_Initialize 001C  
                                   main@Voltage 001C                                             wreg 000FE8  
                          _I2C1_DO_RX_NACK_STOP 000000                                    ___flmul@aexp 0012  
                                  ___flmul@bexp 0013                                    ___flmul@sign 000D  
                                  ___flmul@temp 0018                                    ___flmul@prod 0014  
                                          l1020 1A22                                            l1012 192E  
                                          l1017 1A1C                                            l1009 18EA  
                                          l3000 16AC                                            l3010 16E6  
                                          l3002 16BC                                            l3020 1712  
                                          l3012 16E8                                            l3004 16BE  
                                          l3100 1428                                            l3030 1728  
                                          l3022 1714                                            l3014 1700  
                                          l3006 16D8                                            l3110 1458  
                                          l3102 142A                                            l3200 0FD6  
                                          l3040 176A                                            l3032 1740  
                                          l3024 1716                                            l3016 1702  
                                          l3008 16E4                                            l3120 1492  
                                          l3112 1468                                            l3104 1444  
                                          l3210 1026                                            l3202 0FF6  
                                          l3050 17A8                                            l3042 177A  
                                          l3034 174C                                            l3026 1724  
                                          l3018 1704                                            l3130 14BE  
                                          l3122 1494                                            l3114 146A  
                                          l3106 1446                                            l1292 1C9C  
                                          l3300 1C0E                                            l3220 1076  
                                          l3212 1030                                            l3204 1006  
                                          l3052 17B4                                            l3044 177C  
                                          l3036 174E                                            l3028 1726  
                                          l3140 14D4                                            l3132 14C0  
                                          l3124 14AC                                            l3116 1484  
                                          l3108 1456                                            l3060 1368  
                                          l3310 1C7C                                            l3302 1C1E  
                                          l3230 10B8                                            l3222 1082  
                                          l3214 1046                                            l3046 178C  
                                          l3038 1768                                            l3054 17B8  
                                          l3150 1516                                            l3142 14EC  
                                          l3134 14C2                                            l3126 14AE  
                                          l3118 1490                                            l3070 139A  
                                          l3062 1378                                            l3312 1C8A  
                                          l3304 1C4C                                            l3240 111A  
                                          l3232 10C8                                            l3224 1090  
                                          l3216 1052                                            l3208 101A  
                                          l3320 1A2E                                            l3056 17DA  
                                          l3048 178E                                            l3160 1554  
                                          l3152 1526                                            l3144 14F8  
                                          l3136 14D0                                            l3128 14B0  
                                          l3080 13DC                                            l3072 13B4  
                                          l3064 1386                                            l3400 18C8  
                                          l1297 1CE2                                            l1641 0FE6  
                                          l1722 1E92                                            l1730 1D26  
                                          l3314 1CDA                                            l3306 1C5C  
                                          l1650 1254                                            l3250 11C2  
                                          l3242 1136                                            l3234 10E2  
                                          l3226 109C                                            l3218 106A  
                                          l3170 0F2E                                            l3322 1A3E  
                                          l3162 1560                                            l3154 1528  
                                          l3146 14FA                                            l3138 14D2  
                                          l3090 13F2                                            l3082 13DE  
                                          l3074 13C0                                            l3066 1388  
                                          l3058 1350                                            l3410 1918  
                                          l3402 18D8                                            l1651 1242  
                                          l1724 1EA2                                            l1740 1D30  
                                          l1732 1D28                                            l3316 1CE0  
                                          l3308 1C6A                                            l3260 11FE  
                                          l3252 11CC                                            l3244 1160  
                                          l3236 10F2                                            l3228 10AC  
                                          l3180 0F6E                                            l3172 0F3C  
                                          l3340 1B04                                            l3332 1ABC  
                                          l3324 1A4C                                            l3156 1538  
                                          l3148 1514                                            l3092 1400  
                                          l3084 13E0                                            l3076 13C2  
                                          l3068 1398                                            l3164 1564  
                                          l3420 1994                                            l3412 192C  
                                          l3404 18DC                                            l1645 134A  
                                          l1726 1D52                                            l1734 1D2A  
                                          l3270 1270                                            l3262 120C  
                                          l3254 11DA                                            l3246 1196  
                                          l3238 110E                                            l3190 0F9E  
                                          l3182 0F74                                            l3174 0F3E  
                                          l3350 1B84                                            l3342 1B10  
                                          l3334 1AC4                                            l3326 1A92  
                                          l3166 1586                                            l3158 153A  
                                          l3094 1402                                            l3086 13EE  
                                          l3078 13C4                                            l3422 19B6  
                                          l3406 18EC                                            l3414 194A  
                                          l1736 1D2C                                            l1728 1CE4  
                                          l1752 1E44                                            l3280 12DA  
                                          l3272 127E                                            l3264 123A  
                                          l1648 11DC                                            l3256 11EC  
                                          l3248 11A4                                            l3192 0FA0  
                                          l3184 0F84                                            l3176 0F4E  
                                          l3168 0F22                                            l3360 1BCC  
                                          l3352 1B86                                            l3344 1B4C  
                                          l3336 1AD0                                            l3328 1AA8  
                                          l3096 1404                                            l3088 13F0  
                                          l3424 19EA                                            l3416 196E  
                                          l3408 1904                                            l1754 1E7A  
                                          l1738 1D2E                                            l3290 1330  
                                          l3282 12F4                                            l1658 130C  
                                          l3274 12A8                                            l3258 11FA  
                                          l3194 0FB0                                            l3186 0F8A  
                                          l3178 0F5E                                            l3362 1BCE  
                                          l3354 1B8A                                            l3346 1B58  
                                          l3338 1B02                                            l1682 1A82  
                                          l3098 141C                                            l3418 1986  
                                          l3370 17FA                                            l3284 1310  
                                          l3292 1336                                            l3268 1264  
                                          l3276 12AC                                            l3196 0FC0  
                                          l3188 0F90                                            l3356 1BAE  
                                          l3348 1B66                                            l3380 1846  
                                          l3372 1812                                            l1685 1BDE  
                                          l2910 1EC2                                            l3294 133A  
                                          l3286 1320                                            l3278 12C6  
                                          l3198 0FD0                                            l3358 1BBE  
                                          l3390 187C                                            l3382 1848  
                                          l3374 1814                                            l3366 17F4  
                                          l2912 1EB8                                            l2920 1DC2  
                                          l3288 132E                                            l1696 1B76  
                                          l3392 1894                                            l3384 1860  
                                          l3376 182C                                            l3368 17F8  
                                          l1689 1B1A                                            l2914 1ECC  
                                          l2922 1DCE                                            l3298 1BE0  
                                          l2930 1DEA                                            l3394 1896  
                                          l3386 1862                                            l3378 182E  
                                          l2940 1E30                                            l2932 1E18  
                                          l2924 1DDA                                            l2916 1DA2  
                                          l3396 18AE                                            l3388 187A  
                                          l2934 1E1C                                            l2918 1DB6  
                                          l2926 1DE0                                            l2950 15BC  
                                          l3398 18B0                                            l2936 1E1E  
                                          l2944 1E60                                            l2928 1DE4  
                                          l2960 15EE                                            l2952 15CC  
                                          l2938 1E20                                            l2946 1E74  
                                          l2970 1630                                            l2962 1608  
                                          l2954 15DA                                            l2980 1646  
                                          l2972 1632                                            l2964 1614  
                                          l2956 15DC                                            l2948 15A4  
                                          l2990 167C                                            l2982 1654  
                                          l2974 1634                                            l2966 1616  
                                          l2958 15EC                                            l2992 167E  
                                          l2984 1656                                            l2976 1642  
                                          l2968 1618                                            l2994 1698  
                                          l2986 1658                                            l2978 1644  
                                          l2996 169A                                            l2988 1670  
                                          l2998 16AA                                            u1000 1250  
                                          u1001 124C                                            u1010 1264  
                                          u1011 1260                                            u1100 1CDA  
                                          u1020 127E                                            u1101 1CD6  
                                          u1021 127A                                            u1030 12C6  
                                          u1110 1A3E                                            u1031 12C2  
                                          u1111 1A3A                                            u1040 12F4  
                                          u1200 1BCC                                            u1120 1A4C  
                                          u1041 12F0                                            u1201 1BC8  
                                          u1121 1A48                                            u1050 132E  
                                          u1130 1AA8                                            u1210 18EA  
                                          u1051 132A                                            u1131 1AA4  
                                          u1211 18E6                                            u1060 1C0E  
                                          u1140 1AFE                                            u1220 195A  
                                          u1061 1C0A                                            u1141 1AFA  
                                          u1221 1954                                            u1070 1C4C  
                                          u1150 1B48                                            u1230 1A1C  
                                          u1071 1C48                                            u1151 1B44  
                                          u1231 1A18                                            u1080 1C6A  
                                          u1160 1B66                                            u1081 1C66  
                                          u1161 1B62                                            u1090 1C8A  
                                          u1170 1B76                                            u1226 195C  
                                          u1091 1C86                                            u1171 1B72  
                                          u1307 18A0                                            u1180 1B84  
                                          u1181 1B80                                            u1317 18BA  
                                          _LATA 000F83                                            u1190 1BBE  
                                          _LATB 000F84                                            u1191 1BBA  
                                          u1407 13E6                                            u1327 18F6  
                                          u1247 1804                                            _LATC 000F85  
                                          u1417 13F8                                            u1337 1938  
                                          u1257 181E                                            u1507 14DE  
                                          u1427 140E                                            u1347 1978  
                                          u1267 1838                                            u1517 1506  
                                          u1437 1436                                            u1357 135A  
                                          u1277 1852                                            u1607 1622  
                                          u1527 151E                                            u1447 144E  
                                          u1367 137E                                            u1287 186C  
                                          u1617 163A                                            u1537 1530  
                                          u1457 1460                                            u1377 1390  
                                          u1297 1886                                            u1707 171C  
                                          u1627 164C                                            u1547 1546  
                                          u1467 1476                                            u1387 13A6  
                                          u1717 1732                                            u1637 1662  
                                          u1557 1590                                            u1477 149E  
                                          u1397 13CE                                            u1727 175A  
                                          u1647 168A                                            u1567 15AE  
                                          u1487 14B6                                            u1737 1772  
                                          u1657 16A2                                            u1577 15D2  
                                          u1497 14C8                                            u1747 1784  
                                          u1667 16B4                                            u1587 15E4  
                                          u1757 179A                                            u1677 16CA  
                                          u1597 15FA                                            u1767 17E4  
                                          u1687 16F2                                            u1777 1DF0  
                                          u1697 170A                                            _PMD0 000EE1  
                                          _PMD1 000EE2                                            _PMD2 000EE3  
                                          _PMD3 000EE4                                            _PMD4 000EE5  
                                          _PMD5 000EE6                                            _WPUA 000F10  
                                          _WPUB 000F18                                            _WPUC 000F20  
                                          _WPUE 000F2D                                            _main 17F4  
                                          prodh 000FF4                                            prodl 000FF3  
                                          start 0000                                    ___param_bank 000000  
                __size_of_OSCILLATOR_Initialize 0018                   __end_of_OSCILLATOR_Initialize 1E92  
                                         _ADACQ 000F5C                                           _ADCAP 000F5D  
                                         _ADACT 000F56                                           ?_main 0001  
                                         _ADCLK 000F57                                           _ADCNT 000F67  
                                         _ADPCH 000F5F                                           _ADREF 000F58  
                                         _ADPRE 000F5E                                           _ADRPT 000F66  
                               __end_of___flmul 134C                      __end_of_i2c1_fsmStateTable 0F21  
                                         _OSCEN 000EDC                                           _TRISA 000F88  
                                         _TRISB 000F89                                           _TRISC 000F8A  
                             ??_I2C1_Initialize 0001                                 __end_of_motorCW 15A0  
                                         status 000FD8              _EUSART1_DefaultFramingErrorHandler 000000  
                               __initialization 1EA6                      __end_of_EUSART1_Initialize 1DE0  
                                  __end_of_main 1A2C                                          ??_main 001A  
                                 __activetblptr 000003                                          _ADACCH 000F71  
                                        _ADACCL 000F70                                          _ADCON0 000F60  
                                        _ADCON1 000F59                                          _ADCON2 000F5A  
                                        _ADCON3 000F5B                                          _ADERRH 000F6F  
                                        _ADERRL 000F6E                                          _ADLTHH 000F6B  
                                        _ADLTHL 000F6A                                          _ADRESH 000F64  
                                        _ADRESL 000F63                                  main@Resolution 0024  
                                        _ADSTAT 000F65                                          _ADUTHH 000F6D  
                                        _ADUTHL 000F6C                                          _ANSELA 000F11  
                                        _ANSELB 000F19                                          _ANSELC 000F21  
                                        _RC1REG 000F99                                          _RC1STA 000F9D  
                                        _RC2PPS 000EF9                                          _RC3PPS 000EFA  
                                        _ODCONA 000F0F                                          _ODCONB 000F17  
                                        _ODCONC 000F1F                                          _RC6PPS 000EFD  
                                        _INLVLA 000F0D                                          _INLVLB 000F15  
                                        _INLVLC 000F1D                                          _INLVLE 000F2A  
                                        _OSCFRQ 000EDE                                          _RX1PPS 000EB5  
                                        _TX1REG 000F9A                                          _TX1STA 000F9E  
                              __end_of___xxtofl 1BE0                                __end_of_delay_ms 1E16  
                              _I2C1_DO_TX_EMPTY 000000                            delay_ms@milliseconds 0001  
                                        ___flge 1BE0                                       ??___flmul 0009  
                      ?_EUSART1_SetErrorHandler 0001                                          clear_0 1EAC  
                                        isa$std 000001                ??_EUSART1_SetOverrunErrorHandler 0003  
               ?_EUSART1_SetOverrunErrorHandler 0001                                 _ADCC_Initialize 1D52  
                         _I2C1_DO_SEND_ADR_READ 000000                                  _PMD_Initialize 1E44  
                              __end_of_motorCCW 17F4                                    __mediumconst 0000  
                                     ??_motorCW 0008               __size_of_ADCC_GetSingleConversion 002E  
                     ?_ADCC_GetSingleConversion 0001                         _I2C1_DO_RX_NACK_RESTART 000000  
                                    ___flge@ff1 0001                                      ___flge@ff2 0005  
                                  ___xxtofl@arg 000B                                    ___xxtofl@exp 000A  
                             _SYSTEM_Initialize 1E60                                    ___xxtofl@val 0001  
                                    __accesstop 0060                         __end_of__initialization 1EB2  
                            ?_SYSTEM_Initialize 0001                                   ___rparam_used 000001  
                       _rdBlkRegCompleteHandler 000000                                  __pcstackCOMRAM 0001  
                           ??_SYSTEM_Initialize 0003                          __end_of_PMD_Initialize 1E60  
                     __end_of_SYSTEM_Initialize 1E7A                                      __pnvCOMRAM 004F  
                         _rd1RegCompleteHandler 000000                               _I2C1_DO_SEND_STOP 000000  
                         _wr1RegCompleteHandler 000000                 __end_of_EUSART1_SetErrorHandler 1ED6  
                                       ?___flge 0001                         __end_of_ADCC_Initialize 1DA2  
                               _I2C1_Initialize 1E92                                         _ADFLTRH 000F73  
                                       _ADFLTRL 000F72                                         _ADPREVH 000F62  
                                       _ADPREVL 000F61                                         _ADSTPTH 000F69  
                                       _ADSTPTL 000F68                                 ?_PMD_Initialize 0001  
        __end_of_EUSART1_SetFramingErrorHandler 1ECC         __size_of_EUSART1_SetFramingErrorHandler 000A  
                _EUSART1_SetFramingErrorHandler 1EC2                                       ?___xxtofl 0001  
                                       _SP1BRGH 000F9C                                         _SP1BRGL 000F9B  
                                       _OSCCON1 000ED8                                         _OSCCON3 000EDA  
                                     ?_delay_ms 0001                                         _OSCTUNE 000EDD  
                                       _SSP1ADD 000F93                                         _SLRCONA 000F0E  
                                       _SLRCONB 000F16                                         _SLRCONC 000F1E  
                                       _SSP1BUF 000F92                              _i2c1_fsmStateTable 0F01  
                                       __Hparam 0000                                         __Lparam 0000  
                                     ?_motorCCW 0004                                 __size_of___flge 0104  
                                       ___flmul 0F22                                    __psmallconst 0F00  
                                       __pcinit 1EA6                                         __ramtop 0F00  
                                       __ptext0 17F4                                         __ptext1 134C  
                                       __ptext2 15A0                                         __ptext3 1DE0  
                                       __ptext4 1A2C                                         __ptext5 0F22  
                                       __ptext6 1BE0                                         __ptext7 1E60  
                                       __ptext8 1E44                                         __ptext9 1CE4  
                                   motorCW@step 0006                           _OSCILLATOR_Initialize 1E7A  
                                    ??___xxtofl 0005                              _EUSART1_Initialize 1DA2  
                      ??_PIN_MANAGER_Initialize 0001                                      ??_delay_ms 0003  
                                       _motorCW 134C                      __size_of_SYSTEM_Initialize 001A  
                          end_of_initialization 1EB2                             ?_EUSART1_Initialize 0001  
                   _EUSART1_OverrunErrorHandler 0051                          _I2C1_DO_SEND_ADR_WRITE 000000  
                       __end_of_I2C1_Initialize 1EA6                                      ??_motorCCW 0008  
                                   _I2C1_Status 002A                                         postinc0 000FEE  
                              ?_ADCC_Initialize 0001                __end_of_ADCC_GetSingleConversion 1E44  
                          ??_EUSART1_Initialize 0003                      _I2C1_DO_SEND_RESTART_WRITE 000000  
                                 ___xxtofl@sign 0009                __size_of_EUSART1_SetErrorHandler 000A  
                                   ___flmul@grs 000E                                  __end_of___flge 1CE4  
                                _I2C1_DO_RX_ACK 000000                          ?_OSCILLATOR_Initialize 0001  
                           start_initialization 1EA6                 __size_of_PIN_MANAGER_Initialize 006E  
                              ?_I2C1_Initialize 0001                                        ??___flge 0009  
                              ??_PMD_Initialize 0001                        _ADCC_GetSingleConversion 1E16  
                            main@convertedValue 0028                                       ___flmul@a 0005  
                                     ___flmul@b 0001                                     __pbssCOMRAM 002A  
                          _I2C1_DO_SEND_RESTART 000000                               __size_of___xxtofl 01B4  
                             __size_of_delay_ms 0036                ??_EUSART1_SetFramingErrorHandler 0003  
               ?_EUSART1_SetFramingErrorHandler 0001                                   motorCCW@delay 0004  
                         _rd2RegCompleteHandler 000000                          _PIN_MANAGER_Initialize 1CE4  
                         _wr2RegCompleteHandler 000000                 ADCC_GetSingleConversion@channel 0005  
                                      ?___flmul 0001                               __size_of_motorCCW 0254  
                                      _BAUD1CON 000F9F                                     __smallconst 0F00  
            _EUSART1_DefaultOverrunErrorHandler 000000                            _EUSART1_ErrorHandler 004F  
                                      ?_motorCW 0004                         _EUSART1_SetErrorHandler 1ECC  
                                      _LATAbits 000F83         EUSART1_SetErrorHandler@interruptHandler 0001  
                                      _LATBbits 000F84                                      _I2C1_DO_RX 000000  
                                    _I2C1_DO_TX 000000                                        _PIE3bits 000EC5  
                                      _PIR3bits 000ECD                       _I2C1_DO_SEND_RESTART_READ 000000  
                                      _SSP1CON1 000F96                                        _SSP1CON2 000F97  
                                      _SSP1STAT 000F95                                      _ADCON0bits 000F60  
                                    _ADCON1bits 000F59                                      _ADCON2bits 000F5A  
                                    _ADCON3bits 000F5B                                   _I2C1_DO_RESET 000000  
                                    _ADSTATbits 000F65                                        __Hrparam 0000  
                                      __Lrparam 0000                         ??_OSCILLATOR_Initialize 0001  
                              __size_of___flmul 042A                               main@VoltageActual 0020  
                   __size_of_EUSART1_Initialize 003E                       ??_EUSART1_SetErrorHandler 0003  
                   _EUSART1_DefaultErrorHandler 000000                                        ___xxtofl 1A2C  
                                  motorCCW@step 0006                        __size_of_ADCC_Initialize 0050  
                                      _delay_ms 1DE0                                        __ptext10 1E7A  
                                      __ptext11 1E92                                        __ptext12 1DA2  
                                      __ptext13 1EB8                                        __ptext14 1EC2  
                                      __ptext15 1ECC                                        __ptext16 1D52  
                                      __ptext17 1E16                                __size_of_motorCW 0254  
                                  _SSP1CON1bits 000F96                                    _SSP1CON2bits 000F97  
                                  motorCW@delay 0004                        _I2C1_CallbackReturnReset 000000  
                                     motorCCW@i 000A                                   __size_of_main 0238  
                                      _motorCCW 15A0                                      _RC1STAbits 000F9D  
EUSART1_SetOverrunErrorHandler@interruptHandler 0001                                        isa$xinst 000000  
                    ??_ADCC_GetSingleConversion 0003                                    _SSP1STATbits 000F95  
                   _EUSART1_FramingErrorHandler 0053                                    _I2C1_DO_IDLE 000000  
                                  _I2C1_DO_RCEN 000000                         ?_PIN_MANAGER_Initialize 0001  
        __end_of_EUSART1_SetOverrunErrorHandler 1EC2         __size_of_EUSART1_SetOverrunErrorHandler 000A  
                _EUSART1_SetOverrunErrorHandler 1EB8                         _I2C1_CallbackReturnStop 000000  
                                      motorCW@i 000A                            _I2C1_DO_ADDRESS_NACK 000000  
EUSART1_SetFramingErrorHandler@interruptHandler 0001                        __size_of_I2C1_Initialize 0014  
                            _eusart1RxLastError 004E                                      _SSP1DATPPS 000EB8  
                                    _SSP1CLKPPS 000EB7                                      _TX1STAbits 000F9E  
                __end_of_PIN_MANAGER_Initialize 1D52                               ??_ADCC_Initialize 0001  
